ARM GAS  C:\Users\KhanhTD8\AppData\Local\Temp\ccWmZ05Q.s 			page 1


   1              		.cpu cortex-m7
   2              		.eabi_attribute 28, 1
   3              		.eabi_attribute 20, 1
   4              		.eabi_attribute 21, 1
   5              		.eabi_attribute 23, 3
   6              		.eabi_attribute 24, 1
   7              		.eabi_attribute 25, 1
   8              		.eabi_attribute 26, 1
   9              		.eabi_attribute 30, 4
  10              		.eabi_attribute 34, 1
  11              		.eabi_attribute 18, 4
  12              		.file	"stm32h7xx_ll_utils.c"
  13              		.text
  14              		.section	.text.UTILS_IsPLLsReady,"ax",%progbits
  15              		.align	1
  16              		.arch armv7e-m
  17              		.syntax unified
  18              		.thumb
  19              		.thumb_func
  20              		.fpu fpv5-d16
  22              	UTILS_IsPLLsReady:
  23              		@ args = 0, pretend = 0, frame = 0
  24              		@ frame_needed = 0, uses_anonymous_args = 0
  25              		@ link register save eliminated.
  26 0000 084B     		ldr	r3, .L5
  27 0002 1968     		ldr	r1, [r3]
  28 0004 1A68     		ldr	r2, [r3]
  29 0006 01F00071 		and	r1, r1, #33554432
  30 000a 1B68     		ldr	r3, [r3]
  31 000c 02F00062 		and	r2, r2, #134217728
  32 0010 0A43     		orrs	r2, r1, r2
  33 0012 14BF     		ite	ne
  34 0014 0120     		movne	r0, #1
  35 0016 0020     		moveq	r0, #0
  36 0018 13F0005F 		tst	r3, #536870912
  37 001c 18BF     		it	ne
  38 001e 0120     		movne	r0, #1
  39 0020 7047     		bx	lr
  40              	.L6:
  41 0022 00BF     		.align	2
  42              	.L5:
  43 0024 00440258 		.word	1476543488
  45              		.section	.text.LL_Init1msTick,"ax",%progbits
  46              		.align	1
  47              		.global	LL_Init1msTick
  48              		.syntax unified
  49              		.thumb
  50              		.thumb_func
  51              		.fpu fpv5-d16
  53              	LL_Init1msTick:
  54              		@ args = 0, pretend = 0, frame = 0
  55              		@ frame_needed = 0, uses_anonymous_args = 0
  56              		@ link register save eliminated.
  57 0000 4FF47A73 		mov	r3, #1000
  58 0004 0022     		movs	r2, #0
  59 0006 B0FBF3F0 		udiv	r0, r0, r3
  60 000a 034B     		ldr	r3, .L8
ARM GAS  C:\Users\KhanhTD8\AppData\Local\Temp\ccWmZ05Q.s 			page 2


  61 000c 0138     		subs	r0, r0, #1
  62 000e 5860     		str	r0, [r3, #4]
  63 0010 9A60     		str	r2, [r3, #8]
  64 0012 0522     		movs	r2, #5
  65 0014 1A60     		str	r2, [r3]
  66 0016 7047     		bx	lr
  67              	.L9:
  68              		.align	2
  69              	.L8:
  70 0018 10E000E0 		.word	-536813552
  72              		.section	.text.LL_mDelay,"ax",%progbits
  73              		.align	1
  74              		.global	LL_mDelay
  75              		.syntax unified
  76              		.thumb
  77              		.thumb_func
  78              		.fpu fpv5-d16
  80              	LL_mDelay:
  81              		@ args = 0, pretend = 0, frame = 8
  82              		@ frame_needed = 0, uses_anonymous_args = 0
  83              		@ link register save eliminated.
  84 0000 084B     		ldr	r3, .L20
  85 0002 82B0     		sub	sp, sp, #8
  86 0004 411C     		adds	r1, r0, #1
  87 0006 1B68     		ldr	r3, [r3]
  88 0008 18BF     		it	ne
  89 000a 0130     		addne	r0, r0, #1
  90 000c 0193     		str	r3, [sp, #4]
  91 000e 019B     		ldr	r3, [sp, #4]
  92 0010 044B     		ldr	r3, .L20
  93              	.L13:
  94 0012 08B9     		cbnz	r0, .L14
  95 0014 02B0     		add	sp, sp, #8
  96              		@ sp needed
  97 0016 7047     		bx	lr
  98              	.L14:
  99 0018 1A68     		ldr	r2, [r3]
 100 001a D203     		lsls	r2, r2, #15
 101 001c 48BF     		it	mi
 102 001e 00F1FF30 		addmi	r0, r0, #-1
 103 0022 F6E7     		b	.L13
 104              	.L21:
 105              		.align	2
 106              	.L20:
 107 0024 10E000E0 		.word	-536813552
 109              		.section	.text.LL_SetSystemCoreClock,"ax",%progbits
 110              		.align	1
 111              		.global	LL_SetSystemCoreClock
 112              		.syntax unified
 113              		.thumb
 114              		.thumb_func
 115              		.fpu fpv5-d16
 117              	LL_SetSystemCoreClock:
 118              		@ args = 0, pretend = 0, frame = 0
 119              		@ frame_needed = 0, uses_anonymous_args = 0
 120              		@ link register save eliminated.
 121 0000 014B     		ldr	r3, .L23
ARM GAS  C:\Users\KhanhTD8\AppData\Local\Temp\ccWmZ05Q.s 			page 3


 122 0002 1860     		str	r0, [r3]
 123 0004 7047     		bx	lr
 124              	.L24:
 125 0006 00BF     		.align	2
 126              	.L23:
 127 0008 00000000 		.word	SystemCoreClock
 129              		.section	.text.LL_SetFlashLatency,"ax",%progbits
 130              		.align	1
 131              		.global	LL_SetFlashLatency
 132              		.syntax unified
 133              		.thumb
 134              		.thumb_func
 135              		.fpu fpv5-d16
 137              	LL_SetFlashLatency:
 138              		@ args = 0, pretend = 0, frame = 0
 139              		@ frame_needed = 0, uses_anonymous_args = 0
 140              		@ link register save eliminated.
 141 0000 20B3     		cbz	r0, .L26
 142 0002 2A4A     		ldr	r2, .L52
 143 0004 9369     		ldr	r3, [r2, #24]
 144 0006 03F44043 		and	r3, r3, #49152
 145 000a B3F5404F 		cmp	r3, #49152
 146 000e 1FD1     		bne	.L27
 147 0010 274B     		ldr	r3, .L52+4
 148 0012 284A     		ldr	r2, .L52+8
 149 0014 0344     		add	r3, r3, r0
 150 0016 9342     		cmp	r3, r2
 151 0018 42D9     		bls	.L40
 152 001a 274B     		ldr	r3, .L52+12
 153 001c 274A     		ldr	r2, .L52+16
 154 001e 0344     		add	r3, r3, r0
 155 0020 9342     		cmp	r3, r2
 156 0022 3FD9     		bls	.L41
 157 0024 264B     		ldr	r3, .L52+20
 158              	.L51:
 159 0026 9842     		cmp	r0, r3
 160 0028 10D8     		bhi	.L26
 161 002a 0023     		movs	r3, #0
 162              	.L28:
 163 002c 2549     		ldr	r1, .L52+24
 164 002e 0A68     		ldr	r2, [r1]
 165 0030 22F00F02 		bic	r2, r2, #15
 166 0034 1A43     		orrs	r2, r2, r3
 167 0036 0A60     		str	r2, [r1]
 168 0038 0A68     		ldr	r2, [r1]
 169 003a 02F00F02 		and	r2, r2, #15
 170 003e 9342     		cmp	r3, r2
 171 0040 32D0     		beq	.L43
 172 0042 0A68     		ldr	r2, [r1]
 173 0044 02F00F02 		and	r2, r2, #15
 174 0048 9342     		cmp	r3, r2
 175 004a 2DD0     		beq	.L43
 176              	.L26:
 177 004c 0120     		movs	r0, #1
 178 004e 7047     		bx	lr
 179              	.L27:
 180 0050 9369     		ldr	r3, [r2, #24]
ARM GAS  C:\Users\KhanhTD8\AppData\Local\Temp\ccWmZ05Q.s 			page 4


 181 0052 03F44043 		and	r3, r3, #49152
 182 0056 B3F5004F 		cmp	r3, #32768
 183 005a 0ED1     		bne	.L29
 184 005c 1A4A     		ldr	r2, .L52+28
 185 005e 1B4B     		ldr	r3, .L52+32
 186 0060 0244     		add	r2, r2, r0
 187 0062 9A42     		cmp	r2, r3
 188 0064 1AD9     		bls	.L39
 189 0066 1A4A     		ldr	r2, .L52+36
 190 0068 0244     		add	r2, r2, r0
 191 006a 9A42     		cmp	r2, r3
 192 006c 18D9     		bls	.L40
 193 006e 194A     		ldr	r2, .L52+40
 194              	.L50:
 195 0070 0244     		add	r2, r2, r0
 196 0072 9A42     		cmp	r2, r3
 197 0074 16D9     		bls	.L41
 198 0076 0133     		adds	r3, r3, #1
 199 0078 D5E7     		b	.L51
 200              	.L29:
 201 007a 174A     		ldr	r2, .L52+44
 202 007c 174B     		ldr	r3, .L52+48
 203 007e 0244     		add	r2, r2, r0
 204 0080 9A42     		cmp	r2, r3
 205 0082 09D9     		bls	.L38
 206 0084 164A     		ldr	r2, .L52+52
 207 0086 0244     		add	r2, r2, r0
 208 0088 9A42     		cmp	r2, r3
 209 008a 07D9     		bls	.L39
 210 008c 154A     		ldr	r2, .L52+56
 211 008e 0244     		add	r2, r2, r0
 212 0090 9A42     		cmp	r2, r3
 213 0092 05D9     		bls	.L40
 214 0094 144A     		ldr	r2, .L52+60
 215 0096 EBE7     		b	.L50
 216              	.L38:
 217 0098 0423     		movs	r3, #4
 218 009a C7E7     		b	.L28
 219              	.L39:
 220 009c 0323     		movs	r3, #3
 221 009e C5E7     		b	.L28
 222              	.L40:
 223 00a0 0223     		movs	r3, #2
 224 00a2 C3E7     		b	.L28
 225              	.L41:
 226 00a4 0123     		movs	r3, #1
 227 00a6 C1E7     		b	.L28
 228              	.L43:
 229 00a8 0020     		movs	r0, #0
 230 00aa 7047     		bx	lr
 231              	.L53:
 232              		.align	2
 233              	.L52:
 234 00ac 00480258 		.word	1476544512
 235 00b0 FFC4A7F7 		.word	-140000001
 236 00b4 FFE0F505 		.word	99999999
 237 00b8 7FE2D3FB 		.word	-70000001
ARM GAS  C:\Users\KhanhTD8\AppData\Local\Temp\ccWmZ05Q.s 			page 5


 238 00bc 7F1D2C04 		.word	69999999
 239 00c0 801D2C04 		.word	70000000
 240 00c4 00200052 		.word	1375739904
 241 00c8 BF4C2AF6 		.word	-165000001
 242 00cc BF3B4703 		.word	54999999
 243 00d0 7F8871F9 		.word	-110000001
 244 00d4 3FC4B8FC 		.word	-55000001
 245 00d8 FF6A45F5 		.word	-180000001
 246 00dc 3FA5AE02 		.word	44999999
 247 00e0 3F10F4F7 		.word	-135000001
 248 00e4 7FB5A2FA 		.word	-90000001
 249 00e8 BF5A51FD 		.word	-45000001
 251              		.section	.text.UTILS_EnablePLLAndSwitchSystem,"ax",%progbits
 252              		.align	1
 253              		.syntax unified
 254              		.thumb
 255              		.thumb_func
 256              		.fpu fpv5-d16
 258              	UTILS_EnablePLLAndSwitchSystem:
 259              		@ args = 0, pretend = 0, frame = 0
 260              		@ frame_needed = 0, uses_anonymous_args = 0
 261 0000 F8B5     		push	{r3, r4, r5, r6, r7, lr}
 262 0002 4B68     		ldr	r3, [r1, #4]
 263 0004 0646     		mov	r6, r0
 264 0006 384A     		ldr	r2, .L68
 265 0008 0C46     		mov	r4, r1
 266 000a 03F00F03 		and	r3, r3, #15
 267 000e 374F     		ldr	r7, .L68+4
 268 0010 D55C     		ldrb	r5, [r2, r3]	@ zero_extendqisi2
 269 0012 3B68     		ldr	r3, [r7]
 270 0014 05F01F05 		and	r5, r5, #31
 271 0018 20FA05F5 		lsr	r5, r0, r5
 272 001c AB42     		cmp	r3, r5
 273 001e 5BD3     		bcc	.L55
 274              	.L57:
 275 0020 334B     		ldr	r3, .L68+8
 276 0022 1A68     		ldr	r2, [r3]
 277 0024 42F08072 		orr	r2, r2, #16777216
 278 0028 1A60     		str	r2, [r3]
 279              	.L56:
 280 002a 1A68     		ldr	r2, [r3]
 281 002c 9201     		lsls	r2, r2, #6
 282 002e FCD5     		bpl	.L56
 283 0030 DA69     		ldr	r2, [r3, #28]
 284 0032 42F07002 		orr	r2, r2, #112
 285 0036 DA61     		str	r2, [r3, #28]
 286 0038 DA69     		ldr	r2, [r3, #28]
 287 003a 42F4E062 		orr	r2, r2, #1792
 288 003e DA61     		str	r2, [r3, #28]
 289 0040 9A69     		ldr	r2, [r3, #24]
 290 0042 42F07002 		orr	r2, r2, #112
 291 0046 9A61     		str	r2, [r3, #24]
 292 0048 1A6A     		ldr	r2, [r3, #32]
 293 004a 42F07002 		orr	r2, r2, #112
 294 004e 1A62     		str	r2, [r3, #32]
 295 0050 9A69     		ldr	r2, [r3, #24]
 296 0052 2168     		ldr	r1, [r4]
ARM GAS  C:\Users\KhanhTD8\AppData\Local\Temp\ccWmZ05Q.s 			page 6


 297 0054 22F47062 		bic	r2, r2, #3840
 298 0058 0A43     		orrs	r2, r2, r1
 299 005a 9A61     		str	r2, [r3, #24]
 300 005c 9A69     		ldr	r2, [r3, #24]
 301 005e 6168     		ldr	r1, [r4, #4]
 302 0060 22F00F02 		bic	r2, r2, #15
 303 0064 0A43     		orrs	r2, r2, r1
 304 0066 9A61     		str	r2, [r3, #24]
 305 0068 1A69     		ldr	r2, [r3, #16]
 306 006a 22F00702 		bic	r2, r2, #7
 307 006e 42F00302 		orr	r2, r2, #3
 308 0072 1A61     		str	r2, [r3, #16]
 309 0074 1E4B     		ldr	r3, .L68+8
 310              	.L59:
 311 0076 1A69     		ldr	r2, [r3, #16]
 312 0078 02F03802 		and	r2, r2, #56
 313 007c 182A     		cmp	r2, #24
 314 007e FAD1     		bne	.L59
 315 0080 DA69     		ldr	r2, [r3, #28]
 316 0082 A168     		ldr	r1, [r4, #8]
 317 0084 22F07002 		bic	r2, r2, #112
 318 0088 0A43     		orrs	r2, r2, r1
 319 008a DA61     		str	r2, [r3, #28]
 320 008c DA69     		ldr	r2, [r3, #28]
 321 008e E168     		ldr	r1, [r4, #12]
 322 0090 22F4E062 		bic	r2, r2, #1792
 323 0094 0A43     		orrs	r2, r2, r1
 324 0096 DA61     		str	r2, [r3, #28]
 325 0098 9A69     		ldr	r2, [r3, #24]
 326 009a 2169     		ldr	r1, [r4, #16]
 327 009c 22F07002 		bic	r2, r2, #112
 328 00a0 0A43     		orrs	r2, r2, r1
 329 00a2 9A61     		str	r2, [r3, #24]
 330 00a4 1A6A     		ldr	r2, [r3, #32]
 331 00a6 6169     		ldr	r1, [r4, #20]
 332 00a8 22F07002 		bic	r2, r2, #112
 333 00ac 0A43     		orrs	r2, r2, r1
 334 00ae 1A62     		str	r2, [r3, #32]
 335 00b0 3B68     		ldr	r3, [r7]
 336 00b2 AB42     		cmp	r3, r5
 337 00b4 16D9     		bls	.L61
 338 00b6 2846     		mov	r0, r5
 339 00b8 FFF7FEFF 		bl	LL_SetFlashLatency
 340              	.L60:
 341 00bc 0C4B     		ldr	r3, .L68+8
 342 00be 0D4A     		ldr	r2, .L68+12
 343 00c0 9B69     		ldr	r3, [r3, #24]
 344 00c2 03F00F03 		and	r3, r3, #15
 345 00c6 D35C     		ldrb	r3, [r2, r3]	@ zero_extendqisi2
 346 00c8 03F01F03 		and	r3, r3, #31
 347 00cc 26FA03F3 		lsr	r3, r6, r3
 348 00d0 3B60     		str	r3, [r7]
 349 00d2 094B     		ldr	r3, .L68+16
 350 00d4 1E60     		str	r6, [r3]
 351 00d6 04E0     		b	.L58
 352              	.L55:
 353 00d8 2846     		mov	r0, r5
ARM GAS  C:\Users\KhanhTD8\AppData\Local\Temp\ccWmZ05Q.s 			page 7


 354 00da FFF7FEFF 		bl	LL_SetFlashLatency
 355 00de 0028     		cmp	r0, #0
 356 00e0 9ED0     		beq	.L57
 357              	.L58:
 358 00e2 F8BD     		pop	{r3, r4, r5, r6, r7, pc}
 359              	.L61:
 360 00e4 0020     		movs	r0, #0
 361 00e6 E9E7     		b	.L60
 362              	.L69:
 363              		.align	2
 364              	.L68:
 365 00e8 00000000 		.word	LL_RCC_PrescTable
 366 00ec 00000000 		.word	SystemD2Clock
 367 00f0 00440258 		.word	1476543488
 368 00f4 00000000 		.word	D1CorePrescTable
 369 00f8 00000000 		.word	SystemCoreClock
 371              		.section	.text.LL_PLL_ConfigSystemClock_HSI,"ax",%progbits
 372              		.align	1
 373              		.global	LL_PLL_ConfigSystemClock_HSI
 374              		.syntax unified
 375              		.thumb
 376              		.thumb_func
 377              		.fpu fpv5-d16
 379              	LL_PLL_ConfigSystemClock_HSI:
 380              		@ args = 0, pretend = 0, frame = 0
 381              		@ frame_needed = 0, uses_anonymous_args = 0
 382 0000 F7B5     		push	{r0, r1, r2, r4, r5, r6, r7, lr}
 383 0002 314D     		ldr	r5, .L76
 384 0004 0446     		mov	r4, r0
 385 0006 0E46     		mov	r6, r1
 386 0008 2F68     		ldr	r7, [r5]
 387 000a FFF7FEFF 		bl	UTILS_IsPLLsReady
 388 000e 0028     		cmp	r0, #0
 389 0010 56D1     		bne	.L71
 390 0012 A368     		ldr	r3, [r4, #8]
 391 0014 C7F3C107 		ubfx	r7, r7, #3, #2
 392 0018 2C48     		ldr	r0, .L76+4
 393 001a 0093     		str	r3, [sp]
 394 001c 3841     		asrs	r0, r0, r7
 395 001e E368     		ldr	r3, [r4, #12]
 396 0020 D4E90012 		ldrd	r1, r2, [r4]
 397 0024 FFF7FEFF 		bl	LL_RCC_CalcPLLClockFreq
 398 0028 2B68     		ldr	r3, [r5]
 399 002a 5A07     		lsls	r2, r3, #29
 400 002c 06D4     		bmi	.L72
 401 002e 2B68     		ldr	r3, [r5]
 402 0030 43F00103 		orr	r3, r3, #1
 403 0034 2B60     		str	r3, [r5]
 404              	.L73:
 405 0036 2B68     		ldr	r3, [r5]
 406 0038 5B07     		lsls	r3, r3, #29
 407 003a FCD5     		bpl	.L73
 408              	.L72:
 409 003c 224B     		ldr	r3, .L76
 410 003e DA6A     		ldr	r2, [r3, #44]
 411 0040 42F48032 		orr	r2, r2, #65536
 412 0044 DA62     		str	r2, [r3, #44]
ARM GAS  C:\Users\KhanhTD8\AppData\Local\Temp\ccWmZ05Q.s 			page 8


 413 0046 DA6A     		ldr	r2, [r3, #44]
 414 0048 42F00102 		orr	r2, r2, #1
 415 004c DA62     		str	r2, [r3, #44]
 416 004e 9A6A     		ldr	r2, [r3, #40]
 417 0050 22F00302 		bic	r2, r2, #3
 418 0054 9A62     		str	r2, [r3, #40]
 419 0056 DA6A     		ldr	r2, [r3, #44]
 420 0058 2169     		ldr	r1, [r4, #16]
 421 005a 22F00C02 		bic	r2, r2, #12
 422 005e 42EA8102 		orr	r2, r2, r1, lsl #2
 423 0062 DA62     		str	r2, [r3, #44]
 424 0064 DA6A     		ldr	r2, [r3, #44]
 425 0066 6169     		ldr	r1, [r4, #20]
 426 0068 22F00202 		bic	r2, r2, #2
 427 006c 42EA4102 		orr	r2, r2, r1, lsl #1
 428 0070 DA62     		str	r2, [r3, #44]
 429 0072 9A6A     		ldr	r2, [r3, #40]
 430 0074 2168     		ldr	r1, [r4]
 431 0076 22F47C72 		bic	r2, r2, #1008
 432 007a 42EA0112 		orr	r2, r2, r1, lsl #4
 433 007e 9A62     		str	r2, [r3, #40]
 434 0080 196B     		ldr	r1, [r3, #48]
 435 0082 6268     		ldr	r2, [r4, #4]
 436 0084 21F4FF71 		bic	r1, r1, #510
 437 0088 013A     		subs	r2, r2, #1
 438 008a 21F00101 		bic	r1, r1, #1
 439 008e 0A43     		orrs	r2, r2, r1
 440 0090 1A63     		str	r2, [r3, #48]
 441 0092 1A6B     		ldr	r2, [r3, #48]
 442 0094 A168     		ldr	r1, [r4, #8]
 443 0096 22F47E42 		bic	r2, r2, #65024
 444 009a 0139     		subs	r1, r1, #1
 445 009c 42EA4122 		orr	r2, r2, r1, lsl #9
 446 00a0 1A63     		str	r2, [r3, #48]
 447 00a2 5A6B     		ldr	r2, [r3, #52]
 448 00a4 E168     		ldr	r1, [r4, #12]
 449 00a6 22F47F42 		bic	r2, r2, #65280
 450 00aa 22F0F802 		bic	r2, r2, #248
 451 00ae 42EAC102 		orr	r2, r2, r1, lsl #3
 452 00b2 3146     		mov	r1, r6
 453 00b4 5A63     		str	r2, [r3, #52]
 454 00b6 03B0     		add	sp, sp, #12
 455              		@ sp needed
 456 00b8 BDE8F040 		pop	{r4, r5, r6, r7, lr}
 457 00bc FFF7FEBF 		b	UTILS_EnablePLLAndSwitchSystem
 458              	.L71:
 459 00c0 0120     		movs	r0, #1
 460 00c2 03B0     		add	sp, sp, #12
 461              		@ sp needed
 462 00c4 F0BD     		pop	{r4, r5, r6, r7, pc}
 463              	.L77:
 464 00c6 00BF     		.align	2
 465              	.L76:
 466 00c8 00440258 		.word	1476543488
 467 00cc 0090D003 		.word	64000000
 469              		.section	.text.LL_PLL_ConfigSystemClock_HSE,"ax",%progbits
 470              		.align	1
ARM GAS  C:\Users\KhanhTD8\AppData\Local\Temp\ccWmZ05Q.s 			page 9


 471              		.global	LL_PLL_ConfigSystemClock_HSE
 472              		.syntax unified
 473              		.thumb
 474              		.thumb_func
 475              		.fpu fpv5-d16
 477              	LL_PLL_ConfigSystemClock_HSE:
 478              		@ args = 0, pretend = 0, frame = 0
 479              		@ frame_needed = 0, uses_anonymous_args = 0
 480 0000 F7B5     		push	{r0, r1, r2, r4, r5, r6, r7, lr}
 481 0002 0746     		mov	r7, r0
 482 0004 0E46     		mov	r6, r1
 483 0006 1446     		mov	r4, r2
 484 0008 1D46     		mov	r5, r3
 485 000a FFF7FEFF 		bl	UTILS_IsPLLsReady
 486 000e 0028     		cmp	r0, #0
 487 0010 5FD1     		bne	.L79
 488 0012 A368     		ldr	r3, [r4, #8]
 489 0014 3846     		mov	r0, r7
 490 0016 D4E90012 		ldrd	r1, r2, [r4]
 491 001a 0093     		str	r3, [sp]
 492 001c E368     		ldr	r3, [r4, #12]
 493 001e FFF7FEFF 		bl	LL_RCC_CalcPLLClockFreq
 494 0022 2D4A     		ldr	r2, .L87
 495 0024 1368     		ldr	r3, [r2]
 496 0026 9903     		lsls	r1, r3, #14
 497 0028 0FD4     		bmi	.L80
 498 002a 1368     		ldr	r3, [r2]
 499 002c 012E     		cmp	r6, #1
 500 002e 0CBF     		ite	eq
 501 0030 43F48023 		orreq	r3, r3, #262144
 502 0034 23F48023 		bicne	r3, r3, #262144
 503 0038 1360     		str	r3, [r2]
 504 003a 1368     		ldr	r3, [r2]
 505 003c 43F48033 		orr	r3, r3, #65536
 506 0040 1360     		str	r3, [r2]
 507 0042 254A     		ldr	r2, .L87
 508              	.L83:
 509 0044 1368     		ldr	r3, [r2]
 510 0046 9B03     		lsls	r3, r3, #14
 511 0048 FCD5     		bpl	.L83
 512              	.L80:
 513 004a 2349     		ldr	r1, .L87
 514 004c CB6A     		ldr	r3, [r1, #44]
 515 004e 43F48033 		orr	r3, r3, #65536
 516 0052 CB62     		str	r3, [r1, #44]
 517 0054 CB6A     		ldr	r3, [r1, #44]
 518 0056 43F00103 		orr	r3, r3, #1
 519 005a CB62     		str	r3, [r1, #44]
 520 005c 8B6A     		ldr	r3, [r1, #40]
 521 005e 23F00303 		bic	r3, r3, #3
 522 0062 43F00203 		orr	r3, r3, #2
 523 0066 8B62     		str	r3, [r1, #40]
 524 0068 CB6A     		ldr	r3, [r1, #44]
 525 006a 2269     		ldr	r2, [r4, #16]
 526 006c 23F00C03 		bic	r3, r3, #12
 527 0070 43EA8203 		orr	r3, r3, r2, lsl #2
 528 0074 CB62     		str	r3, [r1, #44]
ARM GAS  C:\Users\KhanhTD8\AppData\Local\Temp\ccWmZ05Q.s 			page 10


 529 0076 CB6A     		ldr	r3, [r1, #44]
 530 0078 6269     		ldr	r2, [r4, #20]
 531 007a 23F00203 		bic	r3, r3, #2
 532 007e 43EA4203 		orr	r3, r3, r2, lsl #1
 533 0082 CB62     		str	r3, [r1, #44]
 534 0084 8B6A     		ldr	r3, [r1, #40]
 535 0086 2268     		ldr	r2, [r4]
 536 0088 23F47C73 		bic	r3, r3, #1008
 537 008c 43EA0213 		orr	r3, r3, r2, lsl #4
 538 0090 8B62     		str	r3, [r1, #40]
 539 0092 0A6B     		ldr	r2, [r1, #48]
 540 0094 6368     		ldr	r3, [r4, #4]
 541 0096 22F4FF72 		bic	r2, r2, #510
 542 009a 013B     		subs	r3, r3, #1
 543 009c 22F00102 		bic	r2, r2, #1
 544 00a0 1343     		orrs	r3, r3, r2
 545 00a2 0B63     		str	r3, [r1, #48]
 546 00a4 0B6B     		ldr	r3, [r1, #48]
 547 00a6 A268     		ldr	r2, [r4, #8]
 548 00a8 23F47E43 		bic	r3, r3, #65024
 549 00ac 013A     		subs	r2, r2, #1
 550 00ae 43EA4223 		orr	r3, r3, r2, lsl #9
 551 00b2 0B63     		str	r3, [r1, #48]
 552 00b4 4A6B     		ldr	r2, [r1, #52]
 553 00b6 E368     		ldr	r3, [r4, #12]
 554 00b8 22F47F42 		bic	r2, r2, #65280
 555 00bc 22F0F802 		bic	r2, r2, #248
 556 00c0 42EAC302 		orr	r2, r2, r3, lsl #3
 557 00c4 4A63     		str	r2, [r1, #52]
 558 00c6 2946     		mov	r1, r5
 559 00c8 03B0     		add	sp, sp, #12
 560              		@ sp needed
 561 00ca BDE8F040 		pop	{r4, r5, r6, r7, lr}
 562 00ce FFF7FEBF 		b	UTILS_EnablePLLAndSwitchSystem
 563              	.L79:
 564 00d2 0120     		movs	r0, #1
 565 00d4 03B0     		add	sp, sp, #12
 566              		@ sp needed
 567 00d6 F0BD     		pop	{r4, r5, r6, r7, pc}
 568              	.L88:
 569              		.align	2
 570              	.L87:
 571 00d8 00440258 		.word	1476543488
 573              		.ident	"GCC: (GNU Arm Embedded Toolchain 9-2020-q2-update) 9.3.1 20200408 (release)"
ARM GAS  C:\Users\KhanhTD8\AppData\Local\Temp\ccWmZ05Q.s 			page 11

