ARM GAS  C:\Users\KhanhTD8\AppData\Local\Temp\ccbjdnRF.s 			page 1


   1              		.cpu cortex-m7
   2              		.eabi_attribute 28, 1
   3              		.eabi_attribute 20, 1
   4              		.eabi_attribute 21, 1
   5              		.eabi_attribute 23, 3
   6              		.eabi_attribute 24, 1
   7              		.eabi_attribute 25, 1
   8              		.eabi_attribute 26, 1
   9              		.eabi_attribute 30, 4
  10              		.eabi_attribute 34, 1
  11              		.eabi_attribute 18, 4
  12              		.file	"stm32h7xx_ll_tim.c"
  13              		.text
  14              		.section	.text.LL_APB1_GRP1_ForceReset,"ax",%progbits
  15              		.align	1
  16              		.arch armv7e-m
  17              		.syntax unified
  18              		.thumb
  19              		.thumb_func
  20              		.fpu fpv5-d16
  22              	LL_APB1_GRP1_ForceReset:
  23              		@ args = 0, pretend = 0, frame = 0
  24              		@ frame_needed = 0, uses_anonymous_args = 0
  25              		@ link register save eliminated.
  26 0000 034A     		ldr	r2, .L2
  27 0002 D2F89030 		ldr	r3, [r2, #144]
  28 0006 1843     		orrs	r0, r0, r3
  29 0008 C2F89000 		str	r0, [r2, #144]
  30 000c 7047     		bx	lr
  31              	.L3:
  32 000e 00BF     		.align	2
  33              	.L2:
  34 0010 00440258 		.word	1476543488
  36              		.section	.text.LL_APB1_GRP1_ReleaseReset,"ax",%progbits
  37              		.align	1
  38              		.syntax unified
  39              		.thumb
  40              		.thumb_func
  41              		.fpu fpv5-d16
  43              	LL_APB1_GRP1_ReleaseReset:
  44              		@ args = 0, pretend = 0, frame = 0
  45              		@ frame_needed = 0, uses_anonymous_args = 0
  46              		@ link register save eliminated.
  47 0000 034A     		ldr	r2, .L5
  48 0002 D2F89030 		ldr	r3, [r2, #144]
  49 0006 23EA0000 		bic	r0, r3, r0
  50 000a C2F89000 		str	r0, [r2, #144]
  51 000e 7047     		bx	lr
  52              	.L6:
  53              		.align	2
  54              	.L5:
  55 0010 00440258 		.word	1476543488
  57              		.section	.text.LL_TIM_DeInit,"ax",%progbits
  58              		.align	1
  59              		.global	LL_TIM_DeInit
  60              		.syntax unified
  61              		.thumb
ARM GAS  C:\Users\KhanhTD8\AppData\Local\Temp\ccbjdnRF.s 			page 2


  62              		.thumb_func
  63              		.fpu fpv5-d16
  65              	LL_TIM_DeInit:
  66              		@ args = 0, pretend = 0, frame = 0
  67              		@ frame_needed = 0, uses_anonymous_args = 0
  68 0000 08B5     		push	{r3, lr}
  69 0002 4E4B     		ldr	r3, .L26
  70 0004 9842     		cmp	r0, r3
  71 0006 0DD1     		bne	.L8
  72 0008 4D4B     		ldr	r3, .L26+4
  73 000a D3F89820 		ldr	r2, [r3, #152]
  74 000e 42F00102 		orr	r2, r2, #1
  75 0012 C3F89820 		str	r2, [r3, #152]
  76 0016 D3F89820 		ldr	r2, [r3, #152]
  77 001a 22F00102 		bic	r2, r2, #1
  78              	.L23:
  79 001e C3F89820 		str	r2, [r3, #152]
  80 0022 08E0     		b	.L24
  81              	.L8:
  82 0024 B0F1804F 		cmp	r0, #1073741824
  83 0028 07D1     		bne	.L10
  84 002a 0120     		movs	r0, #1
  85 002c FFF7FEFF 		bl	LL_APB1_GRP1_ForceReset
  86 0030 0120     		movs	r0, #1
  87              	.L25:
  88 0032 FFF7FEFF 		bl	LL_APB1_GRP1_ReleaseReset
  89              	.L24:
  90 0036 0020     		movs	r0, #0
  91              	.L9:
  92 0038 08BD     		pop	{r3, pc}
  93              	.L10:
  94 003a 424B     		ldr	r3, .L26+8
  95 003c 9842     		cmp	r0, r3
  96 003e 04D1     		bne	.L11
  97 0040 0220     		movs	r0, #2
  98 0042 FFF7FEFF 		bl	LL_APB1_GRP1_ForceReset
  99 0046 0220     		movs	r0, #2
 100 0048 F3E7     		b	.L25
 101              	.L11:
 102 004a 3F4B     		ldr	r3, .L26+12
 103 004c 9842     		cmp	r0, r3
 104 004e 04D1     		bne	.L12
 105 0050 0420     		movs	r0, #4
 106 0052 FFF7FEFF 		bl	LL_APB1_GRP1_ForceReset
 107 0056 0420     		movs	r0, #4
 108 0058 EBE7     		b	.L25
 109              	.L12:
 110 005a 3C4B     		ldr	r3, .L26+16
 111 005c 9842     		cmp	r0, r3
 112 005e 04D1     		bne	.L13
 113 0060 0820     		movs	r0, #8
 114 0062 FFF7FEFF 		bl	LL_APB1_GRP1_ForceReset
 115 0066 0820     		movs	r0, #8
 116 0068 E3E7     		b	.L25
 117              	.L13:
 118 006a 394B     		ldr	r3, .L26+20
 119 006c 9842     		cmp	r0, r3
ARM GAS  C:\Users\KhanhTD8\AppData\Local\Temp\ccbjdnRF.s 			page 3


 120 006e 04D1     		bne	.L14
 121 0070 1020     		movs	r0, #16
 122 0072 FFF7FEFF 		bl	LL_APB1_GRP1_ForceReset
 123 0076 1020     		movs	r0, #16
 124 0078 DBE7     		b	.L25
 125              	.L14:
 126 007a 364B     		ldr	r3, .L26+24
 127 007c 9842     		cmp	r0, r3
 128 007e 04D1     		bne	.L15
 129 0080 2020     		movs	r0, #32
 130 0082 FFF7FEFF 		bl	LL_APB1_GRP1_ForceReset
 131 0086 2020     		movs	r0, #32
 132 0088 D3E7     		b	.L25
 133              	.L15:
 134 008a 334B     		ldr	r3, .L26+28
 135 008c 9842     		cmp	r0, r3
 136 008e 0BD1     		bne	.L16
 137 0090 2B4B     		ldr	r3, .L26+4
 138 0092 D3F89820 		ldr	r2, [r3, #152]
 139 0096 42F00202 		orr	r2, r2, #2
 140 009a C3F89820 		str	r2, [r3, #152]
 141 009e D3F89820 		ldr	r2, [r3, #152]
 142 00a2 22F00202 		bic	r2, r2, #2
 143 00a6 BAE7     		b	.L23
 144              	.L16:
 145 00a8 2C4B     		ldr	r3, .L26+32
 146 00aa 9842     		cmp	r0, r3
 147 00ac 04D1     		bne	.L17
 148 00ae 4020     		movs	r0, #64
 149 00b0 FFF7FEFF 		bl	LL_APB1_GRP1_ForceReset
 150 00b4 4020     		movs	r0, #64
 151 00b6 BCE7     		b	.L25
 152              	.L17:
 153 00b8 294B     		ldr	r3, .L26+36
 154 00ba 9842     		cmp	r0, r3
 155 00bc 04D1     		bne	.L18
 156 00be 8020     		movs	r0, #128
 157 00c0 FFF7FEFF 		bl	LL_APB1_GRP1_ForceReset
 158 00c4 8020     		movs	r0, #128
 159 00c6 B4E7     		b	.L25
 160              	.L18:
 161 00c8 264B     		ldr	r3, .L26+40
 162 00ca 9842     		cmp	r0, r3
 163 00cc 06D1     		bne	.L19
 164 00ce 4FF48070 		mov	r0, #256
 165 00d2 FFF7FEFF 		bl	LL_APB1_GRP1_ForceReset
 166 00d6 4FF48070 		mov	r0, #256
 167 00da AAE7     		b	.L25
 168              	.L19:
 169 00dc 224B     		ldr	r3, .L26+44
 170 00de 9842     		cmp	r0, r3
 171 00e0 0BD1     		bne	.L20
 172 00e2 174B     		ldr	r3, .L26+4
 173 00e4 D3F89820 		ldr	r2, [r3, #152]
 174 00e8 42F48032 		orr	r2, r2, #65536
 175 00ec C3F89820 		str	r2, [r3, #152]
 176 00f0 D3F89820 		ldr	r2, [r3, #152]
ARM GAS  C:\Users\KhanhTD8\AppData\Local\Temp\ccbjdnRF.s 			page 4


 177 00f4 22F48032 		bic	r2, r2, #65536
 178 00f8 91E7     		b	.L23
 179              	.L20:
 180 00fa 1C4B     		ldr	r3, .L26+48
 181 00fc 9842     		cmp	r0, r3
 182 00fe 0BD1     		bne	.L21
 183 0100 0F4B     		ldr	r3, .L26+4
 184 0102 D3F89820 		ldr	r2, [r3, #152]
 185 0106 42F40032 		orr	r2, r2, #131072
 186 010a C3F89820 		str	r2, [r3, #152]
 187 010e D3F89820 		ldr	r2, [r3, #152]
 188 0112 22F40032 		bic	r2, r2, #131072
 189 0116 82E7     		b	.L23
 190              	.L21:
 191 0118 154B     		ldr	r3, .L26+52
 192 011a 9842     		cmp	r0, r3
 193 011c 0BD1     		bne	.L22
 194 011e 084B     		ldr	r3, .L26+4
 195 0120 D3F89820 		ldr	r2, [r3, #152]
 196 0124 42F48022 		orr	r2, r2, #262144
 197 0128 C3F89820 		str	r2, [r3, #152]
 198 012c D3F89820 		ldr	r2, [r3, #152]
 199 0130 22F48022 		bic	r2, r2, #262144
 200 0134 73E7     		b	.L23
 201              	.L22:
 202 0136 0120     		movs	r0, #1
 203 0138 7EE7     		b	.L9
 204              	.L27:
 205 013a 00BF     		.align	2
 206              	.L26:
 207 013c 00000140 		.word	1073807360
 208 0140 00440258 		.word	1476543488
 209 0144 00040040 		.word	1073742848
 210 0148 00080040 		.word	1073743872
 211 014c 000C0040 		.word	1073744896
 212 0150 00100040 		.word	1073745920
 213 0154 00140040 		.word	1073746944
 214 0158 00040140 		.word	1073808384
 215 015c 00180040 		.word	1073747968
 216 0160 001C0040 		.word	1073748992
 217 0164 00200040 		.word	1073750016
 218 0168 00400140 		.word	1073823744
 219 016c 00440140 		.word	1073824768
 220 0170 00480140 		.word	1073825792
 222              		.section	.text.LL_TIM_StructInit,"ax",%progbits
 223              		.align	1
 224              		.global	LL_TIM_StructInit
 225              		.syntax unified
 226              		.thumb
 227              		.thumb_func
 228              		.fpu fpv5-d16
 230              	LL_TIM_StructInit:
 231              		@ args = 0, pretend = 0, frame = 0
 232              		@ frame_needed = 0, uses_anonymous_args = 0
 233              		@ link register save eliminated.
 234 0000 0023     		movs	r3, #0
 235 0002 4FF0FF32 		mov	r2, #-1
ARM GAS  C:\Users\KhanhTD8\AppData\Local\Temp\ccbjdnRF.s 			page 5


 236 0006 0380     		strh	r3, [r0]	@ movhi
 237 0008 4360     		str	r3, [r0, #4]
 238 000a 0361     		str	r3, [r0, #16]
 239 000c C0E90223 		strd	r2, r3, [r0, #8]
 240 0010 7047     		bx	lr
 242              		.section	.text.LL_TIM_Init,"ax",%progbits
 243              		.align	1
 244              		.global	LL_TIM_Init
 245              		.syntax unified
 246              		.thumb
 247              		.thumb_func
 248              		.fpu fpv5-d16
 250              	LL_TIM_Init:
 251              		@ args = 0, pretend = 0, frame = 0
 252              		@ frame_needed = 0, uses_anonymous_args = 0
 253              		@ link register save eliminated.
 254 0000 2F4A     		ldr	r2, .L42
 255 0002 0368     		ldr	r3, [r0]
 256 0004 9042     		cmp	r0, r2
 257 0006 12D0     		beq	.L30
 258 0008 B0F1804F 		cmp	r0, #1073741824
 259 000c 0FD0     		beq	.L30
 260 000e A2F57C42 		sub	r2, r2, #64512
 261 0012 9042     		cmp	r0, r2
 262 0014 0BD0     		beq	.L30
 263 0016 02F58062 		add	r2, r2, #1024
 264 001a 9042     		cmp	r0, r2
 265 001c 07D0     		beq	.L30
 266 001e 02F58062 		add	r2, r2, #1024
 267 0022 9042     		cmp	r0, r2
 268 0024 03D0     		beq	.L30
 269 0026 02F57842 		add	r2, r2, #63488
 270 002a 9042     		cmp	r0, r2
 271 002c 19D1     		bne	.L31
 272              	.L30:
 273 002e 4A68     		ldr	r2, [r1, #4]
 274 0030 23F07003 		bic	r3, r3, #112
 275 0034 1343     		orrs	r3, r3, r2
 276 0036 224A     		ldr	r2, .L42
 277 0038 9042     		cmp	r0, r2
 278 003a 1DD0     		beq	.L32
 279 003c B0F1804F 		cmp	r0, #1073741824
 280 0040 1AD0     		beq	.L32
 281 0042 A2F57C42 		sub	r2, r2, #64512
 282 0046 9042     		cmp	r0, r2
 283 0048 16D0     		beq	.L32
 284 004a 02F58062 		add	r2, r2, #1024
 285 004e 9042     		cmp	r0, r2
 286 0050 12D0     		beq	.L32
 287 0052 02F58062 		add	r2, r2, #1024
 288 0056 9042     		cmp	r0, r2
 289 0058 0ED0     		beq	.L32
 290 005a 02F57842 		add	r2, r2, #63488
 291 005e 9042     		cmp	r0, r2
 292 0060 0AD0     		beq	.L32
 293              	.L31:
 294 0062 184A     		ldr	r2, .L42+4
ARM GAS  C:\Users\KhanhTD8\AppData\Local\Temp\ccbjdnRF.s 			page 6


 295 0064 9042     		cmp	r0, r2
 296 0066 07D0     		beq	.L32
 297 0068 02F58062 		add	r2, r2, #1024
 298 006c 9042     		cmp	r0, r2
 299 006e 03D0     		beq	.L32
 300 0070 02F58062 		add	r2, r2, #1024
 301 0074 9042     		cmp	r0, r2
 302 0076 03D1     		bne	.L33
 303              	.L32:
 304 0078 23F44073 		bic	r3, r3, #768
 305 007c CA68     		ldr	r2, [r1, #12]
 306 007e 1343     		orrs	r3, r3, r2
 307              	.L33:
 308 0080 0360     		str	r3, [r0]
 309 0082 8B68     		ldr	r3, [r1, #8]
 310 0084 C362     		str	r3, [r0, #44]
 311 0086 0B88     		ldrh	r3, [r1]
 312 0088 8362     		str	r3, [r0, #40]
 313 008a 0D4B     		ldr	r3, .L42
 314 008c 9842     		cmp	r0, r3
 315 008e 0FD0     		beq	.L34
 316 0090 03F58063 		add	r3, r3, #1024
 317 0094 9842     		cmp	r0, r3
 318 0096 0BD0     		beq	.L34
 319 0098 03F57053 		add	r3, r3, #15360
 320 009c 9842     		cmp	r0, r3
 321 009e 07D0     		beq	.L34
 322 00a0 03F58063 		add	r3, r3, #1024
 323 00a4 9842     		cmp	r0, r3
 324 00a6 03D0     		beq	.L34
 325 00a8 03F58063 		add	r3, r3, #1024
 326 00ac 9842     		cmp	r0, r3
 327 00ae 01D1     		bne	.L35
 328              	.L34:
 329 00b0 0B69     		ldr	r3, [r1, #16]
 330 00b2 0363     		str	r3, [r0, #48]
 331              	.L35:
 332 00b4 4369     		ldr	r3, [r0, #20]
 333 00b6 43F00103 		orr	r3, r3, #1
 334 00ba 4361     		str	r3, [r0, #20]
 335 00bc 0020     		movs	r0, #0
 336 00be 7047     		bx	lr
 337              	.L43:
 338              		.align	2
 339              	.L42:
 340 00c0 00000140 		.word	1073807360
 341 00c4 00400140 		.word	1073823744
 343              		.section	.text.LL_TIM_OC_StructInit,"ax",%progbits
 344              		.align	1
 345              		.global	LL_TIM_OC_StructInit
 346              		.syntax unified
 347              		.thumb
 348              		.thumb_func
 349              		.fpu fpv5-d16
 351              	LL_TIM_OC_StructInit:
 352              		@ args = 0, pretend = 0, frame = 0
 353              		@ frame_needed = 0, uses_anonymous_args = 0
ARM GAS  C:\Users\KhanhTD8\AppData\Local\Temp\ccbjdnRF.s 			page 7


 354              		@ link register save eliminated.
 355 0000 0023     		movs	r3, #0
 356 0002 C0E90033 		strd	r3, r3, [r0]
 357 0006 C0E90233 		strd	r3, r3, [r0, #8]
 358 000a C0E90433 		strd	r3, r3, [r0, #16]
 359 000e C0E90633 		strd	r3, r3, [r0, #24]
 360 0012 7047     		bx	lr
 362              		.section	.text.LL_TIM_OC_Init,"ax",%progbits
 363              		.align	1
 364              		.global	LL_TIM_OC_Init
 365              		.syntax unified
 366              		.thumb
 367              		.thumb_func
 368              		.fpu fpv5-d16
 370              	LL_TIM_OC_Init:
 371              		@ args = 0, pretend = 0, frame = 0
 372              		@ frame_needed = 0, uses_anonymous_args = 0
 373 0000 B1F5805F 		cmp	r1, #4096
 374 0004 30B5     		push	{r4, r5, lr}
 375 0006 00F00D81 		beq	.L46
 376 000a 0AD8     		bhi	.L47
 377 000c 1029     		cmp	r1, #16
 378 000e 00F08480 		beq	.L48
 379 0012 B1F5807F 		cmp	r1, #256
 380 0016 00F0C480 		beq	.L49
 381 001a 0129     		cmp	r1, #1
 382 001c 3BD0     		beq	.L50
 383              	.L67:
 384 001e 0120     		movs	r0, #1
 385              	.L51:
 386 0020 30BD     		pop	{r4, r5, pc}
 387              	.L47:
 388 0022 B1F5803F 		cmp	r1, #65536
 389 0026 00F03081 		beq	.L52
 390 002a B1F5801F 		cmp	r1, #1048576
 391 002e F6D1     		bne	.L67
 392 0030 036A     		ldr	r3, [r0, #32]
 393 0032 1168     		ldr	r1, [r2]
 394 0034 23F48013 		bic	r3, r3, #1048576
 395 0038 0362     		str	r3, [r0, #32]
 396 003a 036A     		ldr	r3, [r0, #32]
 397 003c 446D     		ldr	r4, [r0, #84]
 398 003e 23F40013 		bic	r3, r3, #2097152
 399 0042 24F4E044 		bic	r4, r4, #28672
 400 0046 44EA0124 		orr	r4, r4, r1, lsl #8
 401 004a 1169     		ldr	r1, [r2, #16]
 402 004c 43EA0153 		orr	r3, r3, r1, lsl #20
 403 0050 5168     		ldr	r1, [r2, #4]
 404 0052 23F48013 		bic	r3, r3, #1048576
 405 0056 43EA0153 		orr	r3, r3, r1, lsl #20
 406 005a A549     		ldr	r1, .L68
 407 005c 8842     		cmp	r0, r1
 408 005e 0FD0     		beq	.L64
 409 0060 01F58061 		add	r1, r1, #1024
 410 0064 8842     		cmp	r0, r1
 411 0066 0BD0     		beq	.L64
 412 0068 01F57051 		add	r1, r1, #15360
ARM GAS  C:\Users\KhanhTD8\AppData\Local\Temp\ccbjdnRF.s 			page 8


 413 006c 8842     		cmp	r0, r1
 414 006e 07D0     		beq	.L64
 415 0070 01F58061 		add	r1, r1, #1024
 416 0074 8842     		cmp	r0, r1
 417 0076 03D0     		beq	.L64
 418 0078 01F58061 		add	r1, r1, #1024
 419 007c 8842     		cmp	r0, r1
 420 007e 06D1     		bne	.L65
 421              	.L64:
 422 0080 4168     		ldr	r1, [r0, #4]
 423 0082 9569     		ldr	r5, [r2, #24]
 424 0084 21F40031 		bic	r1, r1, #131072
 425 0088 41EA8521 		orr	r1, r1, r5, lsl #10
 426 008c 4160     		str	r1, [r0, #4]
 427              	.L65:
 428 008e D268     		ldr	r2, [r2, #12]
 429 0090 4465     		str	r4, [r0, #84]
 430 0092 C265     		str	r2, [r0, #92]
 431 0094 3EE0     		b	.L66
 432              	.L50:
 433 0096 036A     		ldr	r3, [r0, #32]
 434 0098 1568     		ldr	r5, [r2]
 435 009a 23F00103 		bic	r3, r3, #1
 436 009e 0362     		str	r3, [r0, #32]
 437 00a0 036A     		ldr	r3, [r0, #32]
 438 00a2 4168     		ldr	r1, [r0, #4]
 439 00a4 8469     		ldr	r4, [r0, #24]
 440 00a6 23F00203 		bic	r3, r3, #2
 441 00aa 24F48034 		bic	r4, r4, #65536
 442 00ae 24F07304 		bic	r4, r4, #115
 443 00b2 2C43     		orrs	r4, r4, r5
 444 00b4 1569     		ldr	r5, [r2, #16]
 445 00b6 2B43     		orrs	r3, r3, r5
 446 00b8 5568     		ldr	r5, [r2, #4]
 447 00ba 23F00103 		bic	r3, r3, #1
 448 00be 2B43     		orrs	r3, r3, r5
 449 00c0 8B4D     		ldr	r5, .L68
 450 00c2 A842     		cmp	r0, r5
 451 00c4 0FD0     		beq	.L54
 452 00c6 05F58065 		add	r5, r5, #1024
 453 00ca A842     		cmp	r0, r5
 454 00cc 0BD0     		beq	.L54
 455 00ce 05F57055 		add	r5, r5, #15360
 456 00d2 A842     		cmp	r0, r5
 457 00d4 07D0     		beq	.L54
 458 00d6 05F58065 		add	r5, r5, #1024
 459 00da A842     		cmp	r0, r5
 460 00dc 03D0     		beq	.L54
 461 00de 05F58065 		add	r5, r5, #1024
 462 00e2 A842     		cmp	r0, r5
 463 00e4 12D1     		bne	.L55
 464              	.L54:
 465 00e6 5569     		ldr	r5, [r2, #20]
 466 00e8 23F00803 		bic	r3, r3, #8
 467 00ec 21F48071 		bic	r1, r1, #256
 468 00f0 43EA8503 		orr	r3, r3, r5, lsl #2
 469 00f4 9568     		ldr	r5, [r2, #8]
ARM GAS  C:\Users\KhanhTD8\AppData\Local\Temp\ccbjdnRF.s 			page 9


 470 00f6 23F00403 		bic	r3, r3, #4
 471 00fa 43EA8503 		orr	r3, r3, r5, lsl #2
 472 00fe 9569     		ldr	r5, [r2, #24]
 473 0100 2943     		orrs	r1, r1, r5
 474 0102 D569     		ldr	r5, [r2, #28]
 475 0104 21F40071 		bic	r1, r1, #512
 476 0108 41EA4501 		orr	r1, r1, r5, lsl #1
 477              	.L55:
 478 010c D268     		ldr	r2, [r2, #12]
 479 010e 4160     		str	r1, [r0, #4]
 480 0110 8461     		str	r4, [r0, #24]
 481 0112 4263     		str	r2, [r0, #52]
 482              	.L66:
 483 0114 0362     		str	r3, [r0, #32]
 484 0116 0020     		movs	r0, #0
 485 0118 82E7     		b	.L51
 486              	.L48:
 487 011a 036A     		ldr	r3, [r0, #32]
 488 011c 1568     		ldr	r5, [r2]
 489 011e 23F01003 		bic	r3, r3, #16
 490 0122 0362     		str	r3, [r0, #32]
 491 0124 036A     		ldr	r3, [r0, #32]
 492 0126 4168     		ldr	r1, [r0, #4]
 493 0128 8469     		ldr	r4, [r0, #24]
 494 012a 23F02003 		bic	r3, r3, #32
 495 012e 24F08074 		bic	r4, r4, #16777216
 496 0132 24F4E644 		bic	r4, r4, #29440
 497 0136 44EA0524 		orr	r4, r4, r5, lsl #8
 498 013a 1569     		ldr	r5, [r2, #16]
 499 013c 43EA0513 		orr	r3, r3, r5, lsl #4
 500 0140 5568     		ldr	r5, [r2, #4]
 501 0142 23F01003 		bic	r3, r3, #16
 502 0146 43EA0513 		orr	r3, r3, r5, lsl #4
 503 014a 694D     		ldr	r5, .L68
 504 014c A842     		cmp	r0, r5
 505 014e 0FD0     		beq	.L56
 506 0150 05F58065 		add	r5, r5, #1024
 507 0154 A842     		cmp	r0, r5
 508 0156 0BD0     		beq	.L56
 509 0158 05F57055 		add	r5, r5, #15360
 510 015c A842     		cmp	r0, r5
 511 015e 07D0     		beq	.L56
 512 0160 05F58065 		add	r5, r5, #1024
 513 0164 A842     		cmp	r0, r5
 514 0166 03D0     		beq	.L56
 515 0168 05F58065 		add	r5, r5, #1024
 516 016c A842     		cmp	r0, r5
 517 016e 13D1     		bne	.L57
 518              	.L56:
 519 0170 5569     		ldr	r5, [r2, #20]
 520 0172 23F08003 		bic	r3, r3, #128
 521 0176 21F48061 		bic	r1, r1, #1024
 522 017a 43EA8513 		orr	r3, r3, r5, lsl #6
 523 017e 9568     		ldr	r5, [r2, #8]
 524 0180 23F04003 		bic	r3, r3, #64
 525 0184 43EA8513 		orr	r3, r3, r5, lsl #6
 526 0188 9569     		ldr	r5, [r2, #24]
ARM GAS  C:\Users\KhanhTD8\AppData\Local\Temp\ccbjdnRF.s 			page 10


 527 018a 41EA8501 		orr	r1, r1, r5, lsl #2
 528 018e D569     		ldr	r5, [r2, #28]
 529 0190 21F40061 		bic	r1, r1, #2048
 530 0194 41EAC501 		orr	r1, r1, r5, lsl #3
 531              	.L57:
 532 0198 D268     		ldr	r2, [r2, #12]
 533 019a 4160     		str	r1, [r0, #4]
 534 019c 8461     		str	r4, [r0, #24]
 535 019e 8263     		str	r2, [r0, #56]
 536 01a0 B8E7     		b	.L66
 537              	.L49:
 538 01a2 036A     		ldr	r3, [r0, #32]
 539 01a4 1568     		ldr	r5, [r2]
 540 01a6 23F48073 		bic	r3, r3, #256
 541 01aa 0362     		str	r3, [r0, #32]
 542 01ac 036A     		ldr	r3, [r0, #32]
 543 01ae 4168     		ldr	r1, [r0, #4]
 544 01b0 C469     		ldr	r4, [r0, #28]
 545 01b2 23F40073 		bic	r3, r3, #512
 546 01b6 24F07304 		bic	r4, r4, #115
 547 01ba 2C43     		orrs	r4, r4, r5
 548 01bc 1569     		ldr	r5, [r2, #16]
 549 01be 43EA0523 		orr	r3, r3, r5, lsl #8
 550 01c2 5568     		ldr	r5, [r2, #4]
 551 01c4 23F48073 		bic	r3, r3, #256
 552 01c8 43EA0523 		orr	r3, r3, r5, lsl #8
 553 01cc 484D     		ldr	r5, .L68
 554 01ce A842     		cmp	r0, r5
 555 01d0 0FD0     		beq	.L58
 556 01d2 05F58065 		add	r5, r5, #1024
 557 01d6 A842     		cmp	r0, r5
 558 01d8 0BD0     		beq	.L58
 559 01da 05F57055 		add	r5, r5, #15360
 560 01de A842     		cmp	r0, r5
 561 01e0 07D0     		beq	.L58
 562 01e2 05F58065 		add	r5, r5, #1024
 563 01e6 A842     		cmp	r0, r5
 564 01e8 03D0     		beq	.L58
 565 01ea 05F58065 		add	r5, r5, #1024
 566 01ee A842     		cmp	r0, r5
 567 01f0 13D1     		bne	.L59
 568              	.L58:
 569 01f2 5569     		ldr	r5, [r2, #20]
 570 01f4 23F40063 		bic	r3, r3, #2048
 571 01f8 21F48051 		bic	r1, r1, #4096
 572 01fc 43EA8523 		orr	r3, r3, r5, lsl #10
 573 0200 9568     		ldr	r5, [r2, #8]
 574 0202 23F48063 		bic	r3, r3, #1024
 575 0206 43EA8523 		orr	r3, r3, r5, lsl #10
 576 020a 9569     		ldr	r5, [r2, #24]
 577 020c 41EA0511 		orr	r1, r1, r5, lsl #4
 578 0210 D569     		ldr	r5, [r2, #28]
 579 0212 21F40051 		bic	r1, r1, #8192
 580 0216 41EA4511 		orr	r1, r1, r5, lsl #5
 581              	.L59:
 582 021a D268     		ldr	r2, [r2, #12]
 583 021c 4160     		str	r1, [r0, #4]
ARM GAS  C:\Users\KhanhTD8\AppData\Local\Temp\ccbjdnRF.s 			page 11


 584 021e C461     		str	r4, [r0, #28]
 585 0220 C263     		str	r2, [r0, #60]
 586 0222 77E7     		b	.L66
 587              	.L46:
 588 0224 036A     		ldr	r3, [r0, #32]
 589 0226 1568     		ldr	r5, [r2]
 590 0228 23F48053 		bic	r3, r3, #4096
 591 022c 0362     		str	r3, [r0, #32]
 592 022e 036A     		ldr	r3, [r0, #32]
 593 0230 4468     		ldr	r4, [r0, #4]
 594 0232 C169     		ldr	r1, [r0, #28]
 595 0234 23F40053 		bic	r3, r3, #8192
 596 0238 21F4E641 		bic	r1, r1, #29440
 597 023c 41EA0521 		orr	r1, r1, r5, lsl #8
 598 0240 1569     		ldr	r5, [r2, #16]
 599 0242 43EA0533 		orr	r3, r3, r5, lsl #12
 600 0246 5568     		ldr	r5, [r2, #4]
 601 0248 23F48053 		bic	r3, r3, #4096
 602 024c 43EA0533 		orr	r3, r3, r5, lsl #12
 603 0250 274D     		ldr	r5, .L68
 604 0252 A842     		cmp	r0, r5
 605 0254 0FD0     		beq	.L60
 606 0256 05F58065 		add	r5, r5, #1024
 607 025a A842     		cmp	r0, r5
 608 025c 0BD0     		beq	.L60
 609 025e 05F57055 		add	r5, r5, #15360
 610 0262 A842     		cmp	r0, r5
 611 0264 07D0     		beq	.L60
 612 0266 05F58065 		add	r5, r5, #1024
 613 026a A842     		cmp	r0, r5
 614 026c 03D0     		beq	.L60
 615 026e 05F58065 		add	r5, r5, #1024
 616 0272 A842     		cmp	r0, r5
 617 0274 04D1     		bne	.L61
 618              	.L60:
 619 0276 24F48044 		bic	r4, r4, #16384
 620 027a 9569     		ldr	r5, [r2, #24]
 621 027c 44EA8514 		orr	r4, r4, r5, lsl #6
 622              	.L61:
 623 0280 D268     		ldr	r2, [r2, #12]
 624 0282 4460     		str	r4, [r0, #4]
 625 0284 C161     		str	r1, [r0, #28]
 626 0286 0264     		str	r2, [r0, #64]
 627 0288 44E7     		b	.L66
 628              	.L52:
 629 028a 036A     		ldr	r3, [r0, #32]
 630 028c 1168     		ldr	r1, [r2]
 631 028e 23F48033 		bic	r3, r3, #65536
 632 0292 0362     		str	r3, [r0, #32]
 633 0294 036A     		ldr	r3, [r0, #32]
 634 0296 446D     		ldr	r4, [r0, #84]
 635 0298 23F40033 		bic	r3, r3, #131072
 636 029c 24F07004 		bic	r4, r4, #112
 637 02a0 0C43     		orrs	r4, r4, r1
 638 02a2 1169     		ldr	r1, [r2, #16]
 639 02a4 43EA0143 		orr	r3, r3, r1, lsl #16
 640 02a8 5168     		ldr	r1, [r2, #4]
ARM GAS  C:\Users\KhanhTD8\AppData\Local\Temp\ccbjdnRF.s 			page 12


 641 02aa 23F48033 		bic	r3, r3, #65536
 642 02ae 43EA0143 		orr	r3, r3, r1, lsl #16
 643 02b2 0F49     		ldr	r1, .L68
 644 02b4 8842     		cmp	r0, r1
 645 02b6 0FD0     		beq	.L62
 646 02b8 01F58061 		add	r1, r1, #1024
 647 02bc 8842     		cmp	r0, r1
 648 02be 0BD0     		beq	.L62
 649 02c0 01F57051 		add	r1, r1, #15360
 650 02c4 8842     		cmp	r0, r1
 651 02c6 07D0     		beq	.L62
 652 02c8 01F58061 		add	r1, r1, #1024
 653 02cc 8842     		cmp	r0, r1
 654 02ce 03D0     		beq	.L62
 655 02d0 01F58061 		add	r1, r1, #1024
 656 02d4 8842     		cmp	r0, r1
 657 02d6 06D1     		bne	.L63
 658              	.L62:
 659 02d8 4168     		ldr	r1, [r0, #4]
 660 02da 9569     		ldr	r5, [r2, #24]
 661 02dc 21F48031 		bic	r1, r1, #65536
 662 02e0 41EA0521 		orr	r1, r1, r5, lsl #8
 663 02e4 4160     		str	r1, [r0, #4]
 664              	.L63:
 665 02e6 D268     		ldr	r2, [r2, #12]
 666 02e8 4465     		str	r4, [r0, #84]
 667 02ea 816D     		ldr	r1, [r0, #88]
 668 02ec 8265     		str	r2, [r0, #88]
 669 02ee 11E7     		b	.L66
 670              	.L69:
 671              		.align	2
 672              	.L68:
 673 02f0 00000140 		.word	1073807360
 675              		.section	.text.LL_TIM_IC_StructInit,"ax",%progbits
 676              		.align	1
 677              		.global	LL_TIM_IC_StructInit
 678              		.syntax unified
 679              		.thumb
 680              		.thumb_func
 681              		.fpu fpv5-d16
 683              	LL_TIM_IC_StructInit:
 684              		@ args = 0, pretend = 0, frame = 0
 685              		@ frame_needed = 0, uses_anonymous_args = 0
 686              		@ link register save eliminated.
 687 0000 0023     		movs	r3, #0
 688 0002 4FF48032 		mov	r2, #65536
 689 0006 C0E90233 		strd	r3, r3, [r0, #8]
 690 000a C0E90032 		strd	r3, r2, [r0]
 691 000e 7047     		bx	lr
 693              		.section	.text.LL_TIM_IC_Init,"ax",%progbits
 694              		.align	1
 695              		.global	LL_TIM_IC_Init
 696              		.syntax unified
 697              		.thumb
 698              		.thumb_func
 699              		.fpu fpv5-d16
 701              	LL_TIM_IC_Init:
ARM GAS  C:\Users\KhanhTD8\AppData\Local\Temp\ccbjdnRF.s 			page 13


 702              		@ args = 0, pretend = 0, frame = 0
 703              		@ frame_needed = 0, uses_anonymous_args = 0
 704 0000 B1F5807F 		cmp	r1, #256
 705 0004 10B5     		push	{r4, lr}
 706 0006 52D0     		beq	.L72
 707 0008 05D8     		bhi	.L73
 708 000a 0129     		cmp	r1, #1
 709 000c 1ED0     		beq	.L74
 710 000e 1029     		cmp	r1, #16
 711 0010 35D0     		beq	.L75
 712              	.L79:
 713 0012 0120     		movs	r0, #1
 714              	.L76:
 715 0014 10BD     		pop	{r4, pc}
 716              	.L73:
 717 0016 B1F5805F 		cmp	r1, #4096
 718 001a FAD1     		bne	.L79
 719 001c 036A     		ldr	r3, [r0, #32]
 720 001e D468     		ldr	r4, [r2, #12]
 721 0020 5168     		ldr	r1, [r2, #4]
 722 0022 23F48053 		bic	r3, r3, #4096
 723 0026 2143     		orrs	r1, r1, r4
 724 0028 0362     		str	r3, [r0, #32]
 725 002a 9468     		ldr	r4, [r2, #8]
 726 002c C369     		ldr	r3, [r0, #28]
 727 002e 2143     		orrs	r1, r1, r4
 728 0030 1268     		ldr	r2, [r2]
 729 0032 23F47F43 		bic	r3, r3, #65280
 730 0036 43EA1123 		orr	r3, r3, r1, lsr #8
 731 003a C361     		str	r3, [r0, #28]
 732 003c 036A     		ldr	r3, [r0, #32]
 733 003e 23F42043 		bic	r3, r3, #40960
 734 0042 43EA0233 		orr	r3, r3, r2, lsl #12
 735 0046 43F48053 		orr	r3, r3, #4096
 736 004a 15E0     		b	.L78
 737              	.L74:
 738 004c 036A     		ldr	r3, [r0, #32]
 739 004e D468     		ldr	r4, [r2, #12]
 740 0050 5168     		ldr	r1, [r2, #4]
 741 0052 23F00103 		bic	r3, r3, #1
 742 0056 2143     		orrs	r1, r1, r4
 743 0058 0362     		str	r3, [r0, #32]
 744 005a 9468     		ldr	r4, [r2, #8]
 745 005c 8369     		ldr	r3, [r0, #24]
 746 005e 2143     		orrs	r1, r1, r4
 747 0060 1268     		ldr	r2, [r2]
 748 0062 23F0FF03 		bic	r3, r3, #255
 749 0066 43EA1143 		orr	r3, r3, r1, lsr #16
 750 006a 8361     		str	r3, [r0, #24]
 751 006c 036A     		ldr	r3, [r0, #32]
 752 006e 23F00A03 		bic	r3, r3, #10
 753 0072 1343     		orrs	r3, r3, r2
 754 0074 43F00103 		orr	r3, r3, #1
 755              	.L78:
 756 0078 0362     		str	r3, [r0, #32]
 757 007a 0020     		movs	r0, #0
 758 007c CAE7     		b	.L76
ARM GAS  C:\Users\KhanhTD8\AppData\Local\Temp\ccbjdnRF.s 			page 14


 759              	.L75:
 760 007e 036A     		ldr	r3, [r0, #32]
 761 0080 D468     		ldr	r4, [r2, #12]
 762 0082 5168     		ldr	r1, [r2, #4]
 763 0084 23F01003 		bic	r3, r3, #16
 764 0088 2143     		orrs	r1, r1, r4
 765 008a 0362     		str	r3, [r0, #32]
 766 008c 9468     		ldr	r4, [r2, #8]
 767 008e 8369     		ldr	r3, [r0, #24]
 768 0090 2143     		orrs	r1, r1, r4
 769 0092 1268     		ldr	r2, [r2]
 770 0094 23F47F43 		bic	r3, r3, #65280
 771 0098 43EA1123 		orr	r3, r3, r1, lsr #8
 772 009c 8361     		str	r3, [r0, #24]
 773 009e 036A     		ldr	r3, [r0, #32]
 774 00a0 23F0A003 		bic	r3, r3, #160
 775 00a4 43EA0213 		orr	r3, r3, r2, lsl #4
 776 00a8 43F01003 		orr	r3, r3, #16
 777 00ac E4E7     		b	.L78
 778              	.L72:
 779 00ae 036A     		ldr	r3, [r0, #32]
 780 00b0 D468     		ldr	r4, [r2, #12]
 781 00b2 5168     		ldr	r1, [r2, #4]
 782 00b4 23F48073 		bic	r3, r3, #256
 783 00b8 2143     		orrs	r1, r1, r4
 784 00ba 0362     		str	r3, [r0, #32]
 785 00bc 9468     		ldr	r4, [r2, #8]
 786 00be C369     		ldr	r3, [r0, #28]
 787 00c0 2143     		orrs	r1, r1, r4
 788 00c2 1268     		ldr	r2, [r2]
 789 00c4 23F0FF03 		bic	r3, r3, #255
 790 00c8 43EA1143 		orr	r3, r3, r1, lsr #16
 791 00cc C361     		str	r3, [r0, #28]
 792 00ce 036A     		ldr	r3, [r0, #32]
 793 00d0 23F42063 		bic	r3, r3, #2560
 794 00d4 43EA0223 		orr	r3, r3, r2, lsl #8
 795 00d8 43F48073 		orr	r3, r3, #256
 796 00dc CCE7     		b	.L78
 798              		.section	.text.LL_TIM_ENCODER_StructInit,"ax",%progbits
 799              		.align	1
 800              		.global	LL_TIM_ENCODER_StructInit
 801              		.syntax unified
 802              		.thumb
 803              		.thumb_func
 804              		.fpu fpv5-d16
 806              	LL_TIM_ENCODER_StructInit:
 807              		@ args = 0, pretend = 0, frame = 0
 808              		@ frame_needed = 0, uses_anonymous_args = 0
 809              		@ link register save eliminated.
 810 0000 0023     		movs	r3, #0
 811 0002 0122     		movs	r2, #1
 812 0004 C0E90023 		strd	r2, r3, [r0]
 813 0008 4FF48032 		mov	r2, #65536
 814 000c 0362     		str	r3, [r0, #32]
 815 000e C0E90223 		strd	r2, r3, [r0, #8]
 816 0012 C0E90433 		strd	r3, r3, [r0, #16]
 817 0016 C0E90623 		strd	r2, r3, [r0, #24]
ARM GAS  C:\Users\KhanhTD8\AppData\Local\Temp\ccbjdnRF.s 			page 15


 818 001a 7047     		bx	lr
 820              		.section	.text.LL_TIM_ENCODER_Init,"ax",%progbits
 821              		.align	1
 822              		.global	LL_TIM_ENCODER_Init
 823              		.syntax unified
 824              		.thumb
 825              		.thumb_func
 826              		.fpu fpv5-d16
 828              	LL_TIM_ENCODER_Init:
 829              		@ args = 0, pretend = 0, frame = 0
 830              		@ frame_needed = 0, uses_anonymous_args = 0
 831 0000 036A     		ldr	r3, [r0, #32]
 832 0002 4A89     		ldrh	r2, [r1, #10]
 833 0004 23F01103 		bic	r3, r3, #17
 834 0008 30B5     		push	{r4, r5, lr}
 835 000a 4D8A     		ldrh	r5, [r1, #18]
 836 000c 0362     		str	r3, [r0, #32]
 837 000e 2A43     		orrs	r2, r2, r5
 838 0010 8469     		ldr	r4, [r0, #24]
 839 0012 CD89     		ldrh	r5, [r1, #14]
 840 0014 24F0FF04 		bic	r4, r4, #255
 841 0018 036A     		ldr	r3, [r0, #32]
 842 001a 2A43     		orrs	r2, r2, r5
 843 001c 8D69     		ldr	r5, [r1, #24]
 844 001e 23F0AA03 		bic	r3, r3, #170
 845 0022 2243     		orrs	r2, r2, r4
 846 0024 22F47F44 		bic	r4, r2, #65280
 847 0028 0A6A     		ldr	r2, [r1, #32]
 848 002a 120A     		lsrs	r2, r2, #8
 849 002c 42EA1522 		orr	r2, r2, r5, lsr #8
 850 0030 CD69     		ldr	r5, [r1, #28]
 851 0032 42EA1522 		orr	r2, r2, r5, lsr #8
 852 0036 2243     		orrs	r2, r2, r4
 853 0038 4C68     		ldr	r4, [r1, #4]
 854 003a 2343     		orrs	r3, r3, r4
 855 003c 4C69     		ldr	r4, [r1, #20]
 856 003e 0968     		ldr	r1, [r1]
 857 0040 43EA0413 		orr	r3, r3, r4, lsl #4
 858 0044 8468     		ldr	r4, [r0, #8]
 859 0046 24F48034 		bic	r4, r4, #65536
 860 004a 43F01103 		orr	r3, r3, #17
 861 004e 24F00704 		bic	r4, r4, #7
 862 0052 0C43     		orrs	r4, r4, r1
 863 0054 8460     		str	r4, [r0, #8]
 864 0056 8261     		str	r2, [r0, #24]
 865 0058 0362     		str	r3, [r0, #32]
 866 005a 0020     		movs	r0, #0
 867 005c 30BD     		pop	{r4, r5, pc}
 869              		.section	.text.LL_TIM_HALLSENSOR_StructInit,"ax",%progbits
 870              		.align	1
 871              		.global	LL_TIM_HALLSENSOR_StructInit
 872              		.syntax unified
 873              		.thumb
 874              		.thumb_func
 875              		.fpu fpv5-d16
 877              	LL_TIM_HALLSENSOR_StructInit:
 878              		@ args = 0, pretend = 0, frame = 0
ARM GAS  C:\Users\KhanhTD8\AppData\Local\Temp\ccbjdnRF.s 			page 16


 879              		@ frame_needed = 0, uses_anonymous_args = 0
 880              		@ link register save eliminated.
 881 0000 0023     		movs	r3, #0
 882 0002 C0E90033 		strd	r3, r3, [r0]
 883 0006 C0E90233 		strd	r3, r3, [r0, #8]
 884 000a 7047     		bx	lr
 886              		.section	.text.LL_TIM_HALLSENSOR_Init,"ax",%progbits
 887              		.align	1
 888              		.global	LL_TIM_HALLSENSOR_Init
 889              		.syntax unified
 890              		.thumb
 891              		.thumb_func
 892              		.fpu fpv5-d16
 894              	LL_TIM_HALLSENSOR_Init:
 895              		@ args = 0, pretend = 0, frame = 0
 896              		@ frame_needed = 0, uses_anonymous_args = 0
 897 0000 036A     		ldr	r3, [r0, #32]
 898 0002 23F01103 		bic	r3, r3, #17
 899 0006 F0B5     		push	{r4, r5, r6, r7, lr}
 900 0008 0362     		str	r3, [r0, #32]
 901 000a CF88     		ldrh	r7, [r1, #6]
 902 000c 4568     		ldr	r5, [r0, #4]
 903 000e 4B89     		ldrh	r3, [r1, #10]
 904 0010 8669     		ldr	r6, [r0, #24]
 905 0012 45F0D005 		orr	r5, r5, #208
 906 0016 3B43     		orrs	r3, r3, r7
 907 0018 026A     		ldr	r2, [r0, #32]
 908 001a 26F0FF06 		bic	r6, r6, #255
 909 001e 8468     		ldr	r4, [r0, #8]
 910 0020 22F0AA02 		bic	r2, r2, #170
 911 0024 3343     		orrs	r3, r3, r6
 912 0026 24F44414 		bic	r4, r4, #3211264
 913 002a 0E68     		ldr	r6, [r1]
 914 002c 23F08073 		bic	r3, r3, #16777216
 915 0030 24F07704 		bic	r4, r4, #119
 916 0034 3243     		orrs	r2, r2, r6
 917 0036 4560     		str	r5, [r0, #4]
 918 0038 23F47C43 		bic	r3, r3, #64512
 919 003c 44F04404 		orr	r4, r4, #68
 920 0040 42F01102 		orr	r2, r2, #17
 921 0044 43F4E043 		orr	r3, r3, #28672
 922 0048 8460     		str	r4, [r0, #8]
 923 004a 43F00303 		orr	r3, r3, #3
 924 004e 8361     		str	r3, [r0, #24]
 925 0050 CB68     		ldr	r3, [r1, #12]
 926 0052 0262     		str	r2, [r0, #32]
 927 0054 8363     		str	r3, [r0, #56]
 928 0056 0020     		movs	r0, #0
 929 0058 F0BD     		pop	{r4, r5, r6, r7, pc}
 931              		.section	.text.LL_TIM_BDTR_StructInit,"ax",%progbits
 932              		.align	1
 933              		.global	LL_TIM_BDTR_StructInit
 934              		.syntax unified
 935              		.thumb
 936              		.thumb_func
 937              		.fpu fpv5-d16
 939              	LL_TIM_BDTR_StructInit:
ARM GAS  C:\Users\KhanhTD8\AppData\Local\Temp\ccbjdnRF.s 			page 17


 940              		@ args = 0, pretend = 0, frame = 0
 941              		@ frame_needed = 0, uses_anonymous_args = 0
 942              		@ link register save eliminated.
 943 0000 0023     		movs	r3, #0
 944 0002 C0E90033 		strd	r3, r3, [r0]
 945 0006 8360     		str	r3, [r0, #8]
 946 0008 0373     		strb	r3, [r0, #12]
 947 000a C381     		strh	r3, [r0, #14]	@ movhi
 948 000c C0E90433 		strd	r3, r3, [r0, #16]
 949 0010 C0E90633 		strd	r3, r3, [r0, #24]
 950 0014 C0E90833 		strd	r3, r3, [r0, #32]
 951 0018 7047     		bx	lr
 953              		.section	.text.LL_TIM_BDTR_Init,"ax",%progbits
 954              		.align	1
 955              		.global	LL_TIM_BDTR_Init
 956              		.syntax unified
 957              		.thumb
 958              		.thumb_func
 959              		.fpu fpv5-d16
 961              	LL_TIM_BDTR_Init:
 962              		@ args = 0, pretend = 0, frame = 0
 963              		@ frame_needed = 0, uses_anonymous_args = 0
 964 0000 8A68     		ldr	r2, [r1, #8]
 965 0002 0B7B     		ldrb	r3, [r1, #12]	@ zero_extendqisi2
 966 0004 1343     		orrs	r3, r3, r2
 967 0006 4A68     		ldr	r2, [r1, #4]
 968 0008 23F48063 		bic	r3, r3, #1024
 969 000c 1343     		orrs	r3, r3, r2
 970 000e 0A68     		ldr	r2, [r1]
 971 0010 23F40063 		bic	r3, r3, #2048
 972 0014 1343     		orrs	r3, r3, r2
 973 0016 23F48052 		bic	r2, r3, #4096
 974 001a CB89     		ldrh	r3, [r1, #14]
 975 001c 1343     		orrs	r3, r3, r2
 976 001e 0A69     		ldr	r2, [r1, #16]
 977 0020 23F40053 		bic	r3, r3, #8192
 978 0024 1343     		orrs	r3, r3, r2
 979 0026 4A6A     		ldr	r2, [r1, #36]
 980 0028 23F44043 		bic	r3, r3, #49152
 981 002c 1343     		orrs	r3, r3, r2
 982 002e 104A     		ldr	r2, .L89
 983 0030 9042     		cmp	r0, r2
 984 0032 10B5     		push	{r4, lr}
 985 0034 02D0     		beq	.L86
 986 0036 0F4C     		ldr	r4, .L89+4
 987 0038 A042     		cmp	r0, r4
 988 003a 15D1     		bne	.L87
 989              	.L86:
 990 003c 23F47023 		bic	r3, r3, #983040
 991 0040 4C69     		ldr	r4, [r1, #20]
 992 0042 9042     		cmp	r0, r2
 993 0044 43EA0403 		orr	r3, r3, r4
 994 0048 02D0     		beq	.L88
 995 004a 0A4A     		ldr	r2, .L89+4
 996 004c 9042     		cmp	r0, r2
 997 004e 0BD1     		bne	.L87
 998              	.L88:
ARM GAS  C:\Users\KhanhTD8\AppData\Local\Temp\ccbjdnRF.s 			page 18


 999 0050 0A6A     		ldr	r2, [r1, #32]
 1000 0052 23F47003 		bic	r3, r3, #15728640
 1001 0056 1343     		orrs	r3, r3, r2
 1002 0058 8A69     		ldr	r2, [r1, #24]
 1003 005a 23F08073 		bic	r3, r3, #16777216
 1004 005e 1343     		orrs	r3, r3, r2
 1005 0060 CA69     		ldr	r2, [r1, #28]
 1006 0062 23F00073 		bic	r3, r3, #33554432
 1007 0066 1343     		orrs	r3, r3, r2
 1008              	.L87:
 1009 0068 4364     		str	r3, [r0, #68]
 1010 006a 0020     		movs	r0, #0
 1011 006c 10BD     		pop	{r4, pc}
 1012              	.L90:
 1013 006e 00BF     		.align	2
 1014              	.L89:
 1015 0070 00000140 		.word	1073807360
 1016 0074 00040140 		.word	1073808384
 1018              		.ident	"GCC: (GNU Arm Embedded Toolchain 9-2020-q2-update) 9.3.1 20200408 (release)"
ARM GAS  C:\Users\KhanhTD8\AppData\Local\Temp\ccbjdnRF.s 			page 19

