ARM GAS  C:\Users\KhanhTD8\AppData\Local\Temp\ccohIgti.s 			page 1


   1              		.cpu cortex-m7
   2              		.eabi_attribute 28, 1
   3              		.eabi_attribute 20, 1
   4              		.eabi_attribute 21, 1
   5              		.eabi_attribute 23, 3
   6              		.eabi_attribute 24, 1
   7              		.eabi_attribute 25, 1
   8              		.eabi_attribute 26, 1
   9              		.eabi_attribute 30, 4
  10              		.eabi_attribute 34, 1
  11              		.eabi_attribute 18, 4
  12              		.file	"stm32h7xx_ll_rcc.c"
  13              		.text
  14              		.section	.text.LL_RCC_HSE_IsReady,"ax",%progbits
  15              		.align	1
  16              		.arch armv7e-m
  17              		.syntax unified
  18              		.thumb
  19              		.thumb_func
  20              		.fpu fpv5-d16
  22              	LL_RCC_HSE_IsReady:
  23              		@ args = 0, pretend = 0, frame = 0
  24              		@ frame_needed = 0, uses_anonymous_args = 0
  25              		@ link register save eliminated.
  26 0000 024B     		ldr	r3, .L2
  27 0002 1868     		ldr	r0, [r3]
  28 0004 C0F34040 		ubfx	r0, r0, #17, #1
  29 0008 7047     		bx	lr
  30              	.L3:
  31 000a 00BF     		.align	2
  32              	.L2:
  33 000c 00440258 		.word	1476543488
  35              		.section	.text.LL_RCC_HSI_IsReady,"ax",%progbits
  36              		.align	1
  37              		.syntax unified
  38              		.thumb
  39              		.thumb_func
  40              		.fpu fpv5-d16
  42              	LL_RCC_HSI_IsReady:
  43              		@ args = 0, pretend = 0, frame = 0
  44              		@ frame_needed = 0, uses_anonymous_args = 0
  45              		@ link register save eliminated.
  46 0000 024B     		ldr	r3, .L5
  47 0002 1868     		ldr	r0, [r3]
  48 0004 C0F38000 		ubfx	r0, r0, #2, #1
  49 0008 7047     		bx	lr
  50              	.L6:
  51 000a 00BF     		.align	2
  52              	.L5:
  53 000c 00440258 		.word	1476543488
  55              		.section	.text.LL_RCC_CSI_IsReady,"ax",%progbits
  56              		.align	1
  57              		.syntax unified
  58              		.thumb
  59              		.thumb_func
  60              		.fpu fpv5-d16
  62              	LL_RCC_CSI_IsReady:
ARM GAS  C:\Users\KhanhTD8\AppData\Local\Temp\ccohIgti.s 			page 2


  63              		@ args = 0, pretend = 0, frame = 0
  64              		@ frame_needed = 0, uses_anonymous_args = 0
  65              		@ link register save eliminated.
  66 0000 024B     		ldr	r3, .L8
  67 0002 1868     		ldr	r0, [r3]
  68 0004 C0F30020 		ubfx	r0, r0, #8, #1
  69 0008 7047     		bx	lr
  70              	.L9:
  71 000a 00BF     		.align	2
  72              	.L8:
  73 000c 00440258 		.word	1476543488
  75              		.section	.text.LL_RCC_LSE_IsReady,"ax",%progbits
  76              		.align	1
  77              		.syntax unified
  78              		.thumb
  79              		.thumb_func
  80              		.fpu fpv5-d16
  82              	LL_RCC_LSE_IsReady:
  83              		@ args = 0, pretend = 0, frame = 0
  84              		@ frame_needed = 0, uses_anonymous_args = 0
  85              		@ link register save eliminated.
  86 0000 024B     		ldr	r3, .L11
  87 0002 186F     		ldr	r0, [r3, #112]
  88 0004 C0F34000 		ubfx	r0, r0, #1, #1
  89 0008 7047     		bx	lr
  90              	.L12:
  91 000a 00BF     		.align	2
  92              	.L11:
  93 000c 00440258 		.word	1476543488
  95              		.section	.text.LL_RCC_GetClockSource,"ax",%progbits
  96              		.align	1
  97              		.syntax unified
  98              		.thumb
  99              		.thumb_func
 100              		.fpu fpv5-d16
 102              	LL_RCC_GetClockSource:
 103              		@ args = 0, pretend = 0, frame = 0
 104              		@ frame_needed = 0, uses_anonymous_args = 0
 105 0000 C0F30422 		ubfx	r2, r0, #8, #5
 106 0004 030E     		lsrs	r3, r0, #24
 107 0006 0549     		ldr	r1, .L14
 108 0008 9340     		lsls	r3, r3, r2
 109 000a 10B5     		push	{r4, lr}
 110 000c C4B2     		uxtb	r4, r0
 111 000e 6158     		ldr	r1, [r4, r1]
 112 0010 0B40     		ands	r3, r3, r1
 113 0012 D340     		lsrs	r3, r3, r2
 114 0014 40EA0340 		orr	r0, r0, r3, lsl #16
 115 0018 10BD     		pop	{r4, pc}
 116              	.L15:
 117 001a 00BF     		.align	2
 118              	.L14:
 119 001c 4C440258 		.word	1476543564
 121              		.section	.text.LL_RCC_PLL1_IsReady,"ax",%progbits
 122              		.align	1
 123              		.syntax unified
 124              		.thumb
ARM GAS  C:\Users\KhanhTD8\AppData\Local\Temp\ccohIgti.s 			page 3


 125              		.thumb_func
 126              		.fpu fpv5-d16
 128              	LL_RCC_PLL1_IsReady:
 129              		@ args = 0, pretend = 0, frame = 0
 130              		@ frame_needed = 0, uses_anonymous_args = 0
 131              		@ link register save eliminated.
 132 0000 024B     		ldr	r3, .L17
 133 0002 1868     		ldr	r0, [r3]
 134 0004 C0F34060 		ubfx	r0, r0, #25, #1
 135 0008 7047     		bx	lr
 136              	.L18:
 137 000a 00BF     		.align	2
 138              	.L17:
 139 000c 00440258 		.word	1476543488
 141              		.section	.text.LL_RCC_PLL2_IsReady,"ax",%progbits
 142              		.align	1
 143              		.syntax unified
 144              		.thumb
 145              		.thumb_func
 146              		.fpu fpv5-d16
 148              	LL_RCC_PLL2_IsReady:
 149              		@ args = 0, pretend = 0, frame = 0
 150              		@ frame_needed = 0, uses_anonymous_args = 0
 151              		@ link register save eliminated.
 152 0000 024B     		ldr	r3, .L20
 153 0002 1868     		ldr	r0, [r3]
 154 0004 C0F3C060 		ubfx	r0, r0, #27, #1
 155 0008 7047     		bx	lr
 156              	.L21:
 157 000a 00BF     		.align	2
 158              	.L20:
 159 000c 00440258 		.word	1476543488
 161              		.section	.text.LL_RCC_PLL3_IsReady,"ax",%progbits
 162              		.align	1
 163              		.syntax unified
 164              		.thumb
 165              		.thumb_func
 166              		.fpu fpv5-d16
 168              	LL_RCC_PLL3_IsReady:
 169              		@ args = 0, pretend = 0, frame = 0
 170              		@ frame_needed = 0, uses_anonymous_args = 0
 171              		@ link register save eliminated.
 172 0000 024B     		ldr	r3, .L23
 173 0002 1868     		ldr	r0, [r3]
 174 0004 C0F34070 		ubfx	r0, r0, #29, #1
 175 0008 7047     		bx	lr
 176              	.L24:
 177 000a 00BF     		.align	2
 178              	.L23:
 179 000c 00440258 		.word	1476543488
 181              		.section	.text.RCC_GetHCLKClockFreq,"ax",%progbits
 182              		.align	1
 183              		.syntax unified
 184              		.thumb
 185              		.thumb_func
 186              		.fpu fpv5-d16
 188              	RCC_GetHCLKClockFreq:
ARM GAS  C:\Users\KhanhTD8\AppData\Local\Temp\ccohIgti.s 			page 4


 189              		@ args = 0, pretend = 0, frame = 0
 190              		@ frame_needed = 0, uses_anonymous_args = 0
 191              		@ link register save eliminated.
 192 0000 044B     		ldr	r3, .L26
 193 0002 054A     		ldr	r2, .L26+4
 194 0004 9B69     		ldr	r3, [r3, #24]
 195 0006 03F00F03 		and	r3, r3, #15
 196 000a D35C     		ldrb	r3, [r2, r3]	@ zero_extendqisi2
 197 000c 03F01F03 		and	r3, r3, #31
 198 0010 D840     		lsrs	r0, r0, r3
 199 0012 7047     		bx	lr
 200              	.L27:
 201              		.align	2
 202              	.L26:
 203 0014 00440258 		.word	1476543488
 204 0018 00000000 		.word	.LANCHOR0
 206              		.section	.text.RCC_GetPCLK1ClockFreq,"ax",%progbits
 207              		.align	1
 208              		.syntax unified
 209              		.thumb
 210              		.thumb_func
 211              		.fpu fpv5-d16
 213              	RCC_GetPCLK1ClockFreq:
 214              		@ args = 0, pretend = 0, frame = 0
 215              		@ frame_needed = 0, uses_anonymous_args = 0
 216              		@ link register save eliminated.
 217 0000 044B     		ldr	r3, .L29
 218 0002 054A     		ldr	r2, .L29+4
 219 0004 DB69     		ldr	r3, [r3, #28]
 220 0006 C3F30213 		ubfx	r3, r3, #4, #3
 221 000a D35C     		ldrb	r3, [r2, r3]	@ zero_extendqisi2
 222 000c 03F01F03 		and	r3, r3, #31
 223 0010 D840     		lsrs	r0, r0, r3
 224 0012 7047     		bx	lr
 225              	.L30:
 226              		.align	2
 227              	.L29:
 228 0014 00440258 		.word	1476543488
 229 0018 00000000 		.word	.LANCHOR0
 231              		.section	.text.RCC_GetPCLK2ClockFreq,"ax",%progbits
 232              		.align	1
 233              		.syntax unified
 234              		.thumb
 235              		.thumb_func
 236              		.fpu fpv5-d16
 238              	RCC_GetPCLK2ClockFreq:
 239              		@ args = 0, pretend = 0, frame = 0
 240              		@ frame_needed = 0, uses_anonymous_args = 0
 241              		@ link register save eliminated.
 242 0000 044B     		ldr	r3, .L32
 243 0002 054A     		ldr	r2, .L32+4
 244 0004 DB69     		ldr	r3, [r3, #28]
 245 0006 C3F30223 		ubfx	r3, r3, #8, #3
 246 000a D35C     		ldrb	r3, [r2, r3]	@ zero_extendqisi2
 247 000c 03F01F03 		and	r3, r3, #31
 248 0010 D840     		lsrs	r0, r0, r3
 249 0012 7047     		bx	lr
ARM GAS  C:\Users\KhanhTD8\AppData\Local\Temp\ccohIgti.s 			page 5


 250              	.L33:
 251              		.align	2
 252              	.L32:
 253 0014 00440258 		.word	1476543488
 254 0018 00000000 		.word	.LANCHOR0
 256              		.section	.text.RCC_GetPCLK4ClockFreq,"ax",%progbits
 257              		.align	1
 258              		.syntax unified
 259              		.thumb
 260              		.thumb_func
 261              		.fpu fpv5-d16
 263              	RCC_GetPCLK4ClockFreq:
 264              		@ args = 0, pretend = 0, frame = 0
 265              		@ frame_needed = 0, uses_anonymous_args = 0
 266              		@ link register save eliminated.
 267 0000 044B     		ldr	r3, .L35
 268 0002 054A     		ldr	r2, .L35+4
 269 0004 1B6A     		ldr	r3, [r3, #32]
 270 0006 C3F30213 		ubfx	r3, r3, #4, #3
 271 000a D35C     		ldrb	r3, [r2, r3]	@ zero_extendqisi2
 272 000c 03F01F03 		and	r3, r3, #31
 273 0010 D840     		lsrs	r0, r0, r3
 274 0012 7047     		bx	lr
 275              	.L36:
 276              		.align	2
 277              	.L35:
 278 0014 00440258 		.word	1476543488
 279 0018 00000000 		.word	.LANCHOR0
 281              		.section	.text.LL_RCC_DeInit,"ax",%progbits
 282              		.align	1
 283              		.global	LL_RCC_DeInit
 284              		.syntax unified
 285              		.thumb
 286              		.thumb_func
 287              		.fpu fpv5-d16
 289              	LL_RCC_DeInit:
 290              		@ args = 0, pretend = 0, frame = 0
 291              		@ frame_needed = 0, uses_anonymous_args = 0
 292 0000 294A     		ldr	r2, .L52
 293 0002 08B5     		push	{r3, lr}
 294 0004 1368     		ldr	r3, [r2]
 295 0006 03F00F03 		and	r3, r3, #15
 296 000a 062B     		cmp	r3, #6
 297 000c 05D8     		bhi	.L38
 298 000e 1368     		ldr	r3, [r2]
 299 0010 23F00F03 		bic	r3, r3, #15
 300 0014 43F00703 		orr	r3, r3, #7
 301 0018 1360     		str	r3, [r2]
 302              	.L38:
 303 001a 244A     		ldr	r2, .L52+4
 304 001c 1368     		ldr	r3, [r2]
 305 001e 43F00103 		orr	r3, r3, #1
 306 0022 1360     		str	r3, [r2]
 307              	.L39:
 308 0024 FFF7FEFF 		bl	LL_RCC_HSI_IsReady
 309 0028 0028     		cmp	r0, #0
 310 002a FBD0     		beq	.L39
ARM GAS  C:\Users\KhanhTD8\AppData\Local\Temp\ccohIgti.s 			page 6


 311 002c 0023     		movs	r3, #0
 312 002e 1361     		str	r3, [r2, #16]
 313 0030 1F4B     		ldr	r3, .L52+8
 314 0032 1168     		ldr	r1, [r2]
 315 0034 0B40     		ands	r3, r3, r1
 316 0036 1360     		str	r3, [r2]
 317              	.L40:
 318 0038 FFF7FEFF 		bl	LL_RCC_PLL1_IsReady
 319 003c 0028     		cmp	r0, #0
 320 003e FBD1     		bne	.L40
 321              	.L41:
 322 0040 FFF7FEFF 		bl	LL_RCC_PLL2_IsReady
 323 0044 0028     		cmp	r0, #0
 324 0046 FBD1     		bne	.L41
 325              	.L42:
 326 0048 FFF7FEFF 		bl	LL_RCC_PLL3_IsReady
 327 004c 0028     		cmp	r0, #0
 328 004e FBD1     		bne	.L42
 329 0050 164B     		ldr	r3, .L52+4
 330 0052 184A     		ldr	r2, .L52+12
 331 0054 9861     		str	r0, [r3, #24]
 332 0056 D861     		str	r0, [r3, #28]
 333 0058 1862     		str	r0, [r3, #32]
 334 005a 9A62     		str	r2, [r3, #40]
 335 005c 164A     		ldr	r2, .L52+16
 336 005e DA62     		str	r2, [r3, #44]
 337 0060 164A     		ldr	r2, .L52+20
 338 0062 1A63     		str	r2, [r3, #48]
 339 0064 5863     		str	r0, [r3, #52]
 340 0066 9A63     		str	r2, [r3, #56]
 341 0068 D863     		str	r0, [r3, #60]
 342 006a 1A64     		str	r2, [r3, #64]
 343 006c 5864     		str	r0, [r3, #68]
 344 006e 1A68     		ldr	r2, [r3]
 345 0070 22F48022 		bic	r2, r2, #262144
 346 0074 1A60     		str	r2, [r3]
 347 0076 1866     		str	r0, [r3, #96]
 348 0078 9A6E     		ldr	r2, [r3, #104]
 349 007a 6FEAD222 		mvn	r2, r2, lsr #11
 350 007e 6FEAC222 		mvn	r2, r2, lsl #11
 351 0082 9A66     		str	r2, [r3, #104]
 352 0084 D3F8D020 		ldr	r2, [r3, #208]
 353 0088 42F48032 		orr	r2, r2, #65536
 354 008c C3F8D020 		str	r2, [r3, #208]
 355 0090 054A     		ldr	r2, .L52
 356 0092 1368     		ldr	r3, [r2]
 357 0094 1B07     		lsls	r3, r3, #28
 358 0096 05D5     		bpl	.L37
 359 0098 1368     		ldr	r3, [r2]
 360 009a 23F00F03 		bic	r3, r3, #15
 361 009e 43F00703 		orr	r3, r3, #7
 362 00a2 1360     		str	r3, [r2]
 363              	.L37:
 364 00a4 08BD     		pop	{r3, pc}
 365              	.L53:
 366 00a6 00BF     		.align	2
 367              	.L52:
ARM GAS  C:\Users\KhanhTD8\AppData\Local\Temp\ccohIgti.s 			page 7


 368 00a8 00200052 		.word	1375739904
 369 00ac 00440258 		.word	1476543488
 370 00b0 45EDF6EA 		.word	-352916155
 371 00b4 00020202 		.word	33686016
 372 00b8 0000FF01 		.word	33488896
 373 00bc 80020101 		.word	16843392
 375              		.section	.text.LL_RCC_CalcPLLClockFreq,"ax",%progbits
 376              		.align	1
 377              		.global	LL_RCC_CalcPLLClockFreq
 378              		.syntax unified
 379              		.thumb
 380              		.thumb_func
 381              		.fpu fpv5-d16
 383              	LL_RCC_CalcPLLClockFreq:
 384              		@ args = 4, pretend = 0, frame = 0
 385              		@ frame_needed = 0, uses_anonymous_args = 0
 386              		@ link register save eliminated.
 387 0000 07EE900A 		vmov	s15, r0	@ int
 388 0004 9FED106A 		vldr.32	s12, .L55
 389 0008 F8EE676A 		vcvt.f32.u32	s13, s15
 390 000c 07EE901A 		vmov	s15, r1	@ int
 391 0010 F8EE677A 		vcvt.f32.u32	s15, s15
 392 0014 86EEA77A 		vdiv.f32	s14, s13, s15
 393 0018 07EE903A 		vmov	s15, r3	@ int
 394 001c F8EE676A 		vcvt.f32.u32	s13, s15
 395 0020 07EE902A 		vmov	s15, r2	@ int
 396 0024 F8EE677A 		vcvt.f32.u32	s15, s15
 397 0028 E6EE867A 		vfma.f32	s15, s13, s12
 398 002c 67EE277A 		vmul.f32	s15, s14, s15
 399 0030 9DED007A 		vldr.32	s14, [sp]	@ int
 400 0034 B8EE477A 		vcvt.f32.u32	s14, s14
 401 0038 C7EE876A 		vdiv.f32	s13, s15, s14
 402 003c FCEEE67A 		vcvt.u32.f32	s15, s13
 403 0040 17EE900A 		vmov	r0, s15	@ int
 404 0044 7047     		bx	lr
 405              	.L56:
 406 0046 00BF     		.align	2
 407              	.L55:
 408 0048 00000039 		.word	956301312
 410              		.section	.text.LL_RCC_GetPLL1ClockFreq,"ax",%progbits
 411              		.align	1
 412              		.global	LL_RCC_GetPLL1ClockFreq
 413              		.syntax unified
 414              		.thumb
 415              		.thumb_func
 416              		.fpu fpv5-d16
 418              	LL_RCC_GetPLL1ClockFreq:
 419              		@ args = 0, pretend = 0, frame = 0
 420              		@ frame_needed = 0, uses_anonymous_args = 0
 421 0000 2E4A     		ldr	r2, .L86
 422 0002 936A     		ldr	r3, [r2, #40]
 423 0004 03F00303 		and	r3, r3, #3
 424 0008 012B     		cmp	r3, #1
 425 000a 73B5     		push	{r0, r1, r4, r5, r6, lr}
 426 000c 0546     		mov	r5, r0
 427 000e 49D0     		beq	.L58
 428 0010 022B     		cmp	r3, #2
ARM GAS  C:\Users\KhanhTD8\AppData\Local\Temp\ccohIgti.s 			page 8


 429 0012 4DD0     		beq	.L59
 430 0014 13B9     		cbnz	r3, .L69
 431 0016 FFF7FEFF 		bl	LL_RCC_HSI_IsReady
 432 001a 08B9     		cbnz	r0, .L61
 433              	.L69:
 434 001c 0024     		movs	r4, #0
 435 001e 04E0     		b	.L60
 436              	.L61:
 437 0020 1368     		ldr	r3, [r2]
 438 0022 274C     		ldr	r4, .L86+4
 439 0024 C3F3C103 		ubfx	r3, r3, #3, #2
 440 0028 1C41     		asrs	r4, r4, r3
 441              	.L60:
 442 002a 0023     		movs	r3, #0
 443 002c 2348     		ldr	r0, .L86
 444 002e C5E90033 		strd	r3, r3, [r5]
 445 0032 AB60     		str	r3, [r5, #8]
 446 0034 816A     		ldr	r1, [r0, #40]
 447 0036 026B     		ldr	r2, [r0, #48]
 448 0038 C36A     		ldr	r3, [r0, #44]
 449 003a C1F30511 		ubfx	r1, r1, #4, #6
 450 003e 13F00103 		ands	r3, r3, #1
 451 0042 02D0     		beq	.L63
 452 0044 436B     		ldr	r3, [r0, #52]
 453 0046 C3F3CC03 		ubfx	r3, r3, #3, #13
 454              	.L63:
 455 004a 49B3     		cbz	r1, .L57
 456 004c C66A     		ldr	r6, [r0, #44]
 457 004e C2F30802 		ubfx	r2, r2, #0, #9
 458 0052 F603     		lsls	r6, r6, #15
 459 0054 02F10102 		add	r2, r2, #1
 460 0058 08D5     		bpl	.L66
 461 005a 006B     		ldr	r0, [r0, #48]
 462 005c C0F34620 		ubfx	r0, r0, #9, #7
 463 0060 0130     		adds	r0, r0, #1
 464 0062 0090     		str	r0, [sp]
 465 0064 2046     		mov	r0, r4
 466 0066 FFF7FEFF 		bl	LL_RCC_CalcPLLClockFreq
 467 006a 2860     		str	r0, [r5]
 468              	.L66:
 469 006c 1348     		ldr	r0, .L86
 470 006e C66A     		ldr	r6, [r0, #44]
 471 0070 B603     		lsls	r6, r6, #14
 472 0072 08D5     		bpl	.L67
 473 0074 006B     		ldr	r0, [r0, #48]
 474 0076 C0F30640 		ubfx	r0, r0, #16, #7
 475 007a 0130     		adds	r0, r0, #1
 476 007c 0090     		str	r0, [sp]
 477 007e 2046     		mov	r0, r4
 478 0080 FFF7FEFF 		bl	LL_RCC_CalcPLLClockFreq
 479 0084 6860     		str	r0, [r5, #4]
 480              	.L67:
 481 0086 0D48     		ldr	r0, .L86
 482 0088 C66A     		ldr	r6, [r0, #44]
 483 008a 7603     		lsls	r6, r6, #13
 484 008c 08D5     		bpl	.L57
 485 008e 006B     		ldr	r0, [r0, #48]
ARM GAS  C:\Users\KhanhTD8\AppData\Local\Temp\ccohIgti.s 			page 9


 486 0090 C0F30660 		ubfx	r0, r0, #24, #7
 487 0094 0130     		adds	r0, r0, #1
 488 0096 0090     		str	r0, [sp]
 489 0098 2046     		mov	r0, r4
 490 009a FFF7FEFF 		bl	LL_RCC_CalcPLLClockFreq
 491 009e A860     		str	r0, [r5, #8]
 492              	.L57:
 493 00a0 02B0     		add	sp, sp, #8
 494              		@ sp needed
 495 00a2 70BD     		pop	{r4, r5, r6, pc}
 496              	.L58:
 497 00a4 FFF7FEFF 		bl	LL_RCC_CSI_IsReady
 498 00a8 0028     		cmp	r0, #0
 499 00aa B7D0     		beq	.L69
 500 00ac 054C     		ldr	r4, .L86+8
 501 00ae BCE7     		b	.L60
 502              	.L59:
 503 00b0 FFF7FEFF 		bl	LL_RCC_HSE_IsReady
 504 00b4 0028     		cmp	r0, #0
 505 00b6 B1D0     		beq	.L69
 506 00b8 034C     		ldr	r4, .L86+12
 507 00ba B6E7     		b	.L60
 508              	.L87:
 509              		.align	2
 510              	.L86:
 511 00bc 00440258 		.word	1476543488
 512 00c0 0090D003 		.word	64000000
 513 00c4 00093D00 		.word	4000000
 514 00c8 40787D01 		.word	25000000
 516              		.section	.text.RCC_GetSystemClockFreq,"ax",%progbits
 517              		.align	1
 518              		.syntax unified
 519              		.thumb
 520              		.thumb_func
 521              		.fpu fpv5-d16
 523              	RCC_GetSystemClockFreq:
 524              		@ args = 0, pretend = 0, frame = 16
 525              		@ frame_needed = 0, uses_anonymous_args = 0
 526 0000 1FB5     		push	{r0, r1, r2, r3, r4, lr}
 527 0002 104A     		ldr	r2, .L95
 528 0004 1369     		ldr	r3, [r2, #16]
 529 0006 03F03803 		and	r3, r3, #56
 530 000a 102B     		cmp	r3, #16
 531 000c 17D0     		beq	.L93
 532 000e 07D8     		bhi	.L90
 533 0010 53B1     		cbz	r3, .L91
 534 0012 082B     		cmp	r3, #8
 535 0014 0C48     		ldr	r0, .L95+4
 536 0016 18BF     		it	ne
 537 0018 0020     		movne	r0, #0
 538              	.L88:
 539 001a 05B0     		add	sp, sp, #20
 540              		@ sp needed
 541 001c 5DF804FB 		ldr	pc, [sp], #4
 542              	.L90:
 543 0020 182B     		cmp	r3, #24
 544 0022 07D0     		beq	.L92
ARM GAS  C:\Users\KhanhTD8\AppData\Local\Temp\ccohIgti.s 			page 10


 545 0024 0020     		movs	r0, #0
 546 0026 F8E7     		b	.L88
 547              	.L91:
 548 0028 1368     		ldr	r3, [r2]
 549 002a 0848     		ldr	r0, .L95+8
 550 002c C3F3C103 		ubfx	r3, r3, #3, #2
 551 0030 1841     		asrs	r0, r0, r3
 552 0032 F2E7     		b	.L88
 553              	.L92:
 554 0034 01A8     		add	r0, sp, #4
 555 0036 FFF7FEFF 		bl	LL_RCC_GetPLL1ClockFreq
 556 003a 0198     		ldr	r0, [sp, #4]
 557 003c EDE7     		b	.L88
 558              	.L93:
 559 003e 0448     		ldr	r0, .L95+12
 560 0040 EBE7     		b	.L88
 561              	.L96:
 562 0042 00BF     		.align	2
 563              	.L95:
 564 0044 00440258 		.word	1476543488
 565 0048 00093D00 		.word	4000000
 566 004c 0090D003 		.word	64000000
 567 0050 40787D01 		.word	25000000
 569              		.section	.text.LL_RCC_GetSystemClocksFreq,"ax",%progbits
 570              		.align	1
 571              		.global	LL_RCC_GetSystemClocksFreq
 572              		.syntax unified
 573              		.thumb
 574              		.thumb_func
 575              		.fpu fpv5-d16
 577              	LL_RCC_GetSystemClocksFreq:
 578              		@ args = 0, pretend = 0, frame = 0
 579              		@ frame_needed = 0, uses_anonymous_args = 0
 580 0000 10B5     		push	{r4, lr}
 581 0002 0446     		mov	r4, r0
 582 0004 FFF7FEFF 		bl	RCC_GetSystemClockFreq
 583 0008 2060     		str	r0, [r4]
 584 000a FFF7FEFF 		bl	RCC_GetHCLKClockFreq
 585 000e A060     		str	r0, [r4, #8]
 586 0010 FFF7FEFF 		bl	RCC_GetPCLK1ClockFreq
 587 0014 E060     		str	r0, [r4, #12]
 588 0016 A068     		ldr	r0, [r4, #8]
 589 0018 FFF7FEFF 		bl	RCC_GetPCLK2ClockFreq
 590 001c 084B     		ldr	r3, .L98
 591 001e 2061     		str	r0, [r4, #16]
 592 0020 9B69     		ldr	r3, [r3, #24]
 593 0022 084A     		ldr	r2, .L98+4
 594 0024 C3F30213 		ubfx	r3, r3, #4, #3
 595 0028 A068     		ldr	r0, [r4, #8]
 596 002a D35C     		ldrb	r3, [r2, r3]	@ zero_extendqisi2
 597 002c 03F01F03 		and	r3, r3, #31
 598 0030 20FA03F3 		lsr	r3, r0, r3
 599 0034 6361     		str	r3, [r4, #20]
 600 0036 FFF7FEFF 		bl	RCC_GetPCLK4ClockFreq
 601 003a A061     		str	r0, [r4, #24]
 602 003c 10BD     		pop	{r4, pc}
 603              	.L99:
ARM GAS  C:\Users\KhanhTD8\AppData\Local\Temp\ccohIgti.s 			page 11


 604 003e 00BF     		.align	2
 605              	.L98:
 606 0040 00440258 		.word	1476543488
 607 0044 00000000 		.word	.LANCHOR0
 609              		.section	.text.LL_RCC_GetPLL2ClockFreq,"ax",%progbits
 610              		.align	1
 611              		.global	LL_RCC_GetPLL2ClockFreq
 612              		.syntax unified
 613              		.thumb
 614              		.thumb_func
 615              		.fpu fpv5-d16
 617              	LL_RCC_GetPLL2ClockFreq:
 618              		@ args = 0, pretend = 0, frame = 0
 619              		@ frame_needed = 0, uses_anonymous_args = 0
 620 0000 2E4A     		ldr	r2, .L129
 621 0002 936A     		ldr	r3, [r2, #40]
 622 0004 03F00303 		and	r3, r3, #3
 623 0008 012B     		cmp	r3, #1
 624 000a 73B5     		push	{r0, r1, r4, r5, r6, lr}
 625 000c 0546     		mov	r5, r0
 626 000e 49D0     		beq	.L101
 627 0010 022B     		cmp	r3, #2
 628 0012 4DD0     		beq	.L102
 629 0014 13B9     		cbnz	r3, .L112
 630 0016 FFF7FEFF 		bl	LL_RCC_HSI_IsReady
 631 001a 08B9     		cbnz	r0, .L104
 632              	.L112:
 633 001c 0024     		movs	r4, #0
 634 001e 04E0     		b	.L103
 635              	.L104:
 636 0020 1368     		ldr	r3, [r2]
 637 0022 274C     		ldr	r4, .L129+4
 638 0024 C3F3C103 		ubfx	r3, r3, #3, #2
 639 0028 1C41     		asrs	r4, r4, r3
 640              	.L103:
 641 002a 0023     		movs	r3, #0
 642 002c 2348     		ldr	r0, .L129
 643 002e C5E90033 		strd	r3, r3, [r5]
 644 0032 AB60     		str	r3, [r5, #8]
 645 0034 816A     		ldr	r1, [r0, #40]
 646 0036 826B     		ldr	r2, [r0, #56]
 647 0038 C36A     		ldr	r3, [r0, #44]
 648 003a C1F30531 		ubfx	r1, r1, #12, #6
 649 003e 13F01003 		ands	r3, r3, #16
 650 0042 02D0     		beq	.L106
 651 0044 C36B     		ldr	r3, [r0, #60]
 652 0046 C3F3CC03 		ubfx	r3, r3, #3, #13
 653              	.L106:
 654 004a 49B3     		cbz	r1, .L100
 655 004c C66A     		ldr	r6, [r0, #44]
 656 004e C2F30802 		ubfx	r2, r2, #0, #9
 657 0052 3603     		lsls	r6, r6, #12
 658 0054 02F10102 		add	r2, r2, #1
 659 0058 08D5     		bpl	.L109
 660 005a 806B     		ldr	r0, [r0, #56]
 661 005c C0F34620 		ubfx	r0, r0, #9, #7
 662 0060 0130     		adds	r0, r0, #1
ARM GAS  C:\Users\KhanhTD8\AppData\Local\Temp\ccohIgti.s 			page 12


 663 0062 0090     		str	r0, [sp]
 664 0064 2046     		mov	r0, r4
 665 0066 FFF7FEFF 		bl	LL_RCC_CalcPLLClockFreq
 666 006a 2860     		str	r0, [r5]
 667              	.L109:
 668 006c 1348     		ldr	r0, .L129
 669 006e C66A     		ldr	r6, [r0, #44]
 670 0070 F602     		lsls	r6, r6, #11
 671 0072 08D5     		bpl	.L110
 672 0074 806B     		ldr	r0, [r0, #56]
 673 0076 C0F30640 		ubfx	r0, r0, #16, #7
 674 007a 0130     		adds	r0, r0, #1
 675 007c 0090     		str	r0, [sp]
 676 007e 2046     		mov	r0, r4
 677 0080 FFF7FEFF 		bl	LL_RCC_CalcPLLClockFreq
 678 0084 6860     		str	r0, [r5, #4]
 679              	.L110:
 680 0086 0D48     		ldr	r0, .L129
 681 0088 C66A     		ldr	r6, [r0, #44]
 682 008a B602     		lsls	r6, r6, #10
 683 008c 08D5     		bpl	.L100
 684 008e 806B     		ldr	r0, [r0, #56]
 685 0090 C0F30660 		ubfx	r0, r0, #24, #7
 686 0094 0130     		adds	r0, r0, #1
 687 0096 0090     		str	r0, [sp]
 688 0098 2046     		mov	r0, r4
 689 009a FFF7FEFF 		bl	LL_RCC_CalcPLLClockFreq
 690 009e A860     		str	r0, [r5, #8]
 691              	.L100:
 692 00a0 02B0     		add	sp, sp, #8
 693              		@ sp needed
 694 00a2 70BD     		pop	{r4, r5, r6, pc}
 695              	.L101:
 696 00a4 FFF7FEFF 		bl	LL_RCC_CSI_IsReady
 697 00a8 0028     		cmp	r0, #0
 698 00aa B7D0     		beq	.L112
 699 00ac 054C     		ldr	r4, .L129+8
 700 00ae BCE7     		b	.L103
 701              	.L102:
 702 00b0 FFF7FEFF 		bl	LL_RCC_HSE_IsReady
 703 00b4 0028     		cmp	r0, #0
 704 00b6 B1D0     		beq	.L112
 705 00b8 034C     		ldr	r4, .L129+12
 706 00ba B6E7     		b	.L103
 707              	.L130:
 708              		.align	2
 709              	.L129:
 710 00bc 00440258 		.word	1476543488
 711 00c0 0090D003 		.word	64000000
 712 00c4 00093D00 		.word	4000000
 713 00c8 40787D01 		.word	25000000
 715              		.section	.text.LL_RCC_GetPLL3ClockFreq,"ax",%progbits
 716              		.align	1
 717              		.global	LL_RCC_GetPLL3ClockFreq
 718              		.syntax unified
 719              		.thumb
 720              		.thumb_func
ARM GAS  C:\Users\KhanhTD8\AppData\Local\Temp\ccohIgti.s 			page 13


 721              		.fpu fpv5-d16
 723              	LL_RCC_GetPLL3ClockFreq:
 724              		@ args = 0, pretend = 0, frame = 0
 725              		@ frame_needed = 0, uses_anonymous_args = 0
 726 0000 2F4A     		ldr	r2, .L163
 727 0002 936A     		ldr	r3, [r2, #40]
 728 0004 03F00303 		and	r3, r3, #3
 729 0008 012B     		cmp	r3, #1
 730 000a 73B5     		push	{r0, r1, r4, r5, r6, lr}
 731 000c 0546     		mov	r5, r0
 732 000e 4AD0     		beq	.L132
 733 0010 022B     		cmp	r3, #2
 734 0012 4ED0     		beq	.L133
 735 0014 13B9     		cbnz	r3, .L143
 736 0016 FFF7FEFF 		bl	LL_RCC_HSI_IsReady
 737 001a 08B9     		cbnz	r0, .L135
 738              	.L143:
 739 001c 0024     		movs	r4, #0
 740 001e 04E0     		b	.L134
 741              	.L135:
 742 0020 1368     		ldr	r3, [r2]
 743 0022 284C     		ldr	r4, .L163+4
 744 0024 C3F3C103 		ubfx	r3, r3, #3, #2
 745 0028 1C41     		asrs	r4, r4, r3
 746              	.L134:
 747 002a 0023     		movs	r3, #0
 748 002c 2448     		ldr	r0, .L163
 749 002e C5E90033 		strd	r3, r3, [r5]
 750 0032 AB60     		str	r3, [r5, #8]
 751 0034 816A     		ldr	r1, [r0, #40]
 752 0036 026C     		ldr	r2, [r0, #64]
 753 0038 C36A     		ldr	r3, [r0, #44]
 754 003a C1F30551 		ubfx	r1, r1, #20, #6
 755 003e 13F48073 		ands	r3, r3, #256
 756 0042 02D0     		beq	.L137
 757 0044 436C     		ldr	r3, [r0, #68]
 758 0046 C3F3CC03 		ubfx	r3, r3, #3, #13
 759              	.L137:
 760 004a 51B3     		cbz	r1, .L131
 761 004c 4CB3     		cbz	r4, .L131
 762 004e 1C48     		ldr	r0, .L163
 763 0050 C2F30802 		ubfx	r2, r2, #0, #9
 764 0054 C66A     		ldr	r6, [r0, #44]
 765 0056 0132     		adds	r2, r2, #1
 766 0058 7602     		lsls	r6, r6, #9
 767 005a 08D5     		bpl	.L141
 768 005c 006C     		ldr	r0, [r0, #64]
 769 005e C0F34620 		ubfx	r0, r0, #9, #7
 770 0062 0130     		adds	r0, r0, #1
 771 0064 0090     		str	r0, [sp]
 772 0066 2046     		mov	r0, r4
 773 0068 FFF7FEFF 		bl	LL_RCC_CalcPLLClockFreq
 774 006c 2860     		str	r0, [r5]
 775              	.L141:
 776 006e 1448     		ldr	r0, .L163
 777 0070 C66A     		ldr	r6, [r0, #44]
 778 0072 3602     		lsls	r6, r6, #8
ARM GAS  C:\Users\KhanhTD8\AppData\Local\Temp\ccohIgti.s 			page 14


 779 0074 08D5     		bpl	.L142
 780 0076 006C     		ldr	r0, [r0, #64]
 781 0078 C0F30640 		ubfx	r0, r0, #16, #7
 782 007c 0130     		adds	r0, r0, #1
 783 007e 0090     		str	r0, [sp]
 784 0080 2046     		mov	r0, r4
 785 0082 FFF7FEFF 		bl	LL_RCC_CalcPLLClockFreq
 786 0086 6860     		str	r0, [r5, #4]
 787              	.L142:
 788 0088 0D48     		ldr	r0, .L163
 789 008a C66A     		ldr	r6, [r0, #44]
 790 008c F601     		lsls	r6, r6, #7
 791 008e 08D5     		bpl	.L131
 792 0090 006C     		ldr	r0, [r0, #64]
 793 0092 C0F30660 		ubfx	r0, r0, #24, #7
 794 0096 0130     		adds	r0, r0, #1
 795 0098 0090     		str	r0, [sp]
 796 009a 2046     		mov	r0, r4
 797 009c FFF7FEFF 		bl	LL_RCC_CalcPLLClockFreq
 798 00a0 A860     		str	r0, [r5, #8]
 799              	.L131:
 800 00a2 02B0     		add	sp, sp, #8
 801              		@ sp needed
 802 00a4 70BD     		pop	{r4, r5, r6, pc}
 803              	.L132:
 804 00a6 FFF7FEFF 		bl	LL_RCC_CSI_IsReady
 805 00aa 0028     		cmp	r0, #0
 806 00ac B6D0     		beq	.L143
 807 00ae 064C     		ldr	r4, .L163+8
 808 00b0 BBE7     		b	.L134
 809              	.L133:
 810 00b2 FFF7FEFF 		bl	LL_RCC_HSE_IsReady
 811 00b6 0028     		cmp	r0, #0
 812 00b8 B0D0     		beq	.L143
 813 00ba 044C     		ldr	r4, .L163+12
 814 00bc B5E7     		b	.L134
 815              	.L164:
 816 00be 00BF     		.align	2
 817              	.L163:
 818 00c0 00440258 		.word	1476543488
 819 00c4 0090D003 		.word	64000000
 820 00c8 00093D00 		.word	4000000
 821 00cc 40787D01 		.word	25000000
 823              		.section	.text.LL_RCC_GetUSARTClockFreq,"ax",%progbits
 824              		.align	1
 825              		.global	LL_RCC_GetUSARTClockFreq
 826              		.syntax unified
 827              		.thumb
 828              		.thumb_func
 829              		.fpu fpv5-d16
 831              	LL_RCC_GetUSARTClockFreq:
 832              		@ args = 0, pretend = 0, frame = 16
 833              		@ frame_needed = 0, uses_anonymous_args = 0
 834 0000 1FB5     		push	{r0, r1, r2, r3, r4, lr}
 835 0002 FFF7FEFF 		bl	LL_RCC_GetClockSource
 836 0006 3E4B     		ldr	r3, .L193
 837 0008 9842     		cmp	r0, r3
ARM GAS  C:\Users\KhanhTD8\AppData\Local\Temp\ccohIgti.s 			page 15


 838 000a 6AD0     		beq	.L166
 839 000c 1ED8     		bhi	.L167
 840 000e A3F50033 		sub	r3, r3, #131072
 841 0012 9842     		cmp	r0, r3
 842 0014 43D0     		beq	.L168
 843 0016 05D8     		bhi	.L169
 844 0018 A3F54073 		sub	r3, r3, #768
 845 001c 9842     		cmp	r0, r3
 846 001e 50D0     		beq	.L170
 847              	.L178:
 848 0020 0020     		movs	r0, #0
 849 0022 4BE0     		b	.L165
 850              	.L169:
 851 0024 374B     		ldr	r3, .L193+4
 852 0026 9842     		cmp	r0, r3
 853 0028 07D0     		beq	.L172
 854 002a 03F57D43 		add	r3, r3, #64768
 855 002e 9842     		cmp	r0, r3
 856 0030 57D0     		beq	.L166
 857 0032 A3F58033 		sub	r3, r3, #65536
 858 0036 9842     		cmp	r0, r3
 859 0038 F2D1     		bne	.L178
 860              	.L172:
 861 003a FFF7FEFF 		bl	LL_RCC_PLL2_IsReady
 862 003e 0028     		cmp	r0, #0
 863 0040 EED0     		beq	.L178
 864 0042 01A8     		add	r0, sp, #4
 865 0044 FFF7FEFF 		bl	LL_RCC_GetPLL2ClockFreq
 866              	.L192:
 867 0048 0298     		ldr	r0, [sp, #8]
 868 004a 37E0     		b	.L165
 869              	.L167:
 870 004c 2E4B     		ldr	r3, .L193+8
 871 004e 9842     		cmp	r0, r3
 872 0050 4FD0     		beq	.L173
 873 0052 16D8     		bhi	.L174
 874 0054 A3F58033 		sub	r3, r3, #65536
 875 0058 9842     		cmp	r0, r3
 876 005a 07D0     		beq	.L175
 877 005c 03F57D43 		add	r3, r3, #64768
 878 0060 9842     		cmp	r0, r3
 879 0062 46D0     		beq	.L173
 880 0064 A3F58033 		sub	r3, r3, #65536
 881 0068 9842     		cmp	r0, r3
 882 006a D9D1     		bne	.L178
 883              	.L175:
 884 006c FFF7FEFF 		bl	LL_RCC_HSI_IsReady
 885 0070 0028     		cmp	r0, #0
 886 0072 D5D0     		beq	.L178
 887 0074 254B     		ldr	r3, .L193+12
 888 0076 2648     		ldr	r0, .L193+16
 889 0078 1B68     		ldr	r3, [r3]
 890 007a C3F3C103 		ubfx	r3, r3, #3, #2
 891 007e 1841     		asrs	r0, r0, r3
 892 0080 1CE0     		b	.L165
 893              	.L174:
 894 0082 244B     		ldr	r3, .L193+20
ARM GAS  C:\Users\KhanhTD8\AppData\Local\Temp\ccohIgti.s 			page 16


 895 0084 9842     		cmp	r0, r3
 896 0086 03D0     		beq	.L176
 897 0088 03F54073 		add	r3, r3, #768
 898 008c 9842     		cmp	r0, r3
 899 008e C7D1     		bne	.L178
 900              	.L176:
 901 0090 FFF7FEFF 		bl	LL_RCC_LSE_IsReady
 902 0094 0028     		cmp	r0, #0
 903 0096 C3D0     		beq	.L178
 904 0098 4FF40040 		mov	r0, #32768
 905 009c 0EE0     		b	.L165
 906              	.L168:
 907 009e FFF7FEFF 		bl	RCC_GetSystemClockFreq
 908 00a2 1A4B     		ldr	r3, .L193+12
 909 00a4 1C4A     		ldr	r2, .L193+24
 910 00a6 9B69     		ldr	r3, [r3, #24]
 911 00a8 C3F30323 		ubfx	r3, r3, #8, #4
 912 00ac D35C     		ldrb	r3, [r2, r3]	@ zero_extendqisi2
 913 00ae 03F01F03 		and	r3, r3, #31
 914 00b2 D840     		lsrs	r0, r0, r3
 915 00b4 FFF7FEFF 		bl	RCC_GetHCLKClockFreq
 916 00b8 FFF7FEFF 		bl	RCC_GetPCLK2ClockFreq
 917              	.L165:
 918 00bc 05B0     		add	sp, sp, #20
 919              		@ sp needed
 920 00be 5DF804FB 		ldr	pc, [sp], #4
 921              	.L170:
 922 00c2 FFF7FEFF 		bl	RCC_GetSystemClockFreq
 923 00c6 114B     		ldr	r3, .L193+12
 924 00c8 134A     		ldr	r2, .L193+24
 925 00ca 9B69     		ldr	r3, [r3, #24]
 926 00cc C3F30323 		ubfx	r3, r3, #8, #4
 927 00d0 D35C     		ldrb	r3, [r2, r3]	@ zero_extendqisi2
 928 00d2 03F01F03 		and	r3, r3, #31
 929 00d6 D840     		lsrs	r0, r0, r3
 930 00d8 FFF7FEFF 		bl	RCC_GetHCLKClockFreq
 931 00dc FFF7FEFF 		bl	RCC_GetPCLK1ClockFreq
 932 00e0 ECE7     		b	.L165
 933              	.L166:
 934 00e2 FFF7FEFF 		bl	LL_RCC_PLL3_IsReady
 935 00e6 0028     		cmp	r0, #0
 936 00e8 9AD0     		beq	.L178
 937 00ea 01A8     		add	r0, sp, #4
 938 00ec FFF7FEFF 		bl	LL_RCC_GetPLL3ClockFreq
 939 00f0 AAE7     		b	.L192
 940              	.L173:
 941 00f2 FFF7FEFF 		bl	LL_RCC_CSI_IsReady
 942 00f6 0028     		cmp	r0, #0
 943 00f8 92D0     		beq	.L178
 944 00fa 0848     		ldr	r0, .L193+28
 945 00fc DEE7     		b	.L165
 946              	.L194:
 947 00fe 00BF     		.align	2
 948              	.L193:
 949 0100 08030207 		.word	117572360
 950 0104 08030107 		.word	117506824
 951 0108 08030407 		.word	117703432
ARM GAS  C:\Users\KhanhTD8\AppData\Local\Temp\ccohIgti.s 			page 17


 952 010c 00440258 		.word	1476543488
 953 0110 0090D003 		.word	64000000
 954 0114 08000507 		.word	117768200
 955 0118 00000000 		.word	.LANCHOR0
 956 011c 00093D00 		.word	4000000
 958              		.section	.text.LL_RCC_GetLPUARTClockFreq,"ax",%progbits
 959              		.align	1
 960              		.global	LL_RCC_GetLPUARTClockFreq
 961              		.syntax unified
 962              		.thumb
 963              		.thumb_func
 964              		.fpu fpv5-d16
 966              	LL_RCC_GetLPUARTClockFreq:
 967              		@ args = 0, pretend = 0, frame = 16
 968              		@ frame_needed = 0, uses_anonymous_args = 0
 969 0000 1FB5     		push	{r0, r1, r2, r3, r4, lr}
 970 0002 224C     		ldr	r4, .L218
 971 0004 A36D     		ldr	r3, [r4, #88]
 972 0006 03F00703 		and	r3, r3, #7
 973 000a 052B     		cmp	r3, #5
 974 000c 17D8     		bhi	.L206
 975 000e DFE803F0 		tbb	[pc, r3]
 976              	.L198:
 977 0012 03       		.byte	(.L203-.L198)/2
 978 0013 13       		.byte	(.L202-.L198)/2
 979 0014 1D       		.byte	(.L201-.L198)/2
 980 0015 25       		.byte	(.L200-.L198)/2
 981 0016 2F       		.byte	(.L199-.L198)/2
 982 0017 35       		.byte	(.L197-.L198)/2
 983              		.p2align 1
 984              	.L203:
 985 0018 FFF7FEFF 		bl	RCC_GetSystemClockFreq
 986 001c A369     		ldr	r3, [r4, #24]
 987 001e 1C4A     		ldr	r2, .L218+4
 988 0020 C3F30323 		ubfx	r3, r3, #8, #4
 989 0024 D35C     		ldrb	r3, [r2, r3]	@ zero_extendqisi2
 990 0026 03F01F03 		and	r3, r3, #31
 991 002a D840     		lsrs	r0, r0, r3
 992 002c FFF7FEFF 		bl	RCC_GetHCLKClockFreq
 993 0030 FFF7FEFF 		bl	RCC_GetPCLK4ClockFreq
 994              	.L195:
 995 0034 04B0     		add	sp, sp, #16
 996              		@ sp needed
 997 0036 10BD     		pop	{r4, pc}
 998              	.L202:
 999 0038 FFF7FEFF 		bl	LL_RCC_PLL2_IsReady
 1000 003c 08B9     		cbnz	r0, .L204
 1001              	.L206:
 1002 003e 0020     		movs	r0, #0
 1003 0040 F8E7     		b	.L195
 1004              	.L204:
 1005 0042 01A8     		add	r0, sp, #4
 1006 0044 FFF7FEFF 		bl	LL_RCC_GetPLL2ClockFreq
 1007              	.L217:
 1008 0048 0298     		ldr	r0, [sp, #8]
 1009 004a F3E7     		b	.L195
 1010              	.L201:
ARM GAS  C:\Users\KhanhTD8\AppData\Local\Temp\ccohIgti.s 			page 18


 1011 004c FFF7FEFF 		bl	LL_RCC_PLL3_IsReady
 1012 0050 0028     		cmp	r0, #0
 1013 0052 F4D0     		beq	.L206
 1014 0054 01A8     		add	r0, sp, #4
 1015 0056 FFF7FEFF 		bl	LL_RCC_GetPLL3ClockFreq
 1016 005a F5E7     		b	.L217
 1017              	.L200:
 1018 005c FFF7FEFF 		bl	LL_RCC_HSI_IsReady
 1019 0060 0028     		cmp	r0, #0
 1020 0062 ECD0     		beq	.L206
 1021 0064 2368     		ldr	r3, [r4]
 1022 0066 0B48     		ldr	r0, .L218+8
 1023 0068 C3F3C103 		ubfx	r3, r3, #3, #2
 1024 006c 1841     		asrs	r0, r0, r3
 1025 006e E1E7     		b	.L195
 1026              	.L199:
 1027 0070 FFF7FEFF 		bl	LL_RCC_CSI_IsReady
 1028 0074 0028     		cmp	r0, #0
 1029 0076 E2D0     		beq	.L206
 1030 0078 0748     		ldr	r0, .L218+12
 1031 007a DBE7     		b	.L195
 1032              	.L197:
 1033 007c FFF7FEFF 		bl	LL_RCC_LSE_IsReady
 1034 0080 0028     		cmp	r0, #0
 1035 0082 DCD0     		beq	.L206
 1036 0084 4FF40040 		mov	r0, #32768
 1037 0088 D4E7     		b	.L195
 1038              	.L219:
 1039 008a 00BF     		.align	2
 1040              	.L218:
 1041 008c 00440258 		.word	1476543488
 1042 0090 00000000 		.word	.LANCHOR0
 1043 0094 0090D003 		.word	64000000
 1044 0098 00093D00 		.word	4000000
 1046              		.section	.text.LL_RCC_GetI2CClockFreq,"ax",%progbits
 1047              		.align	1
 1048              		.global	LL_RCC_GetI2CClockFreq
 1049              		.syntax unified
 1050              		.thumb
 1051              		.thumb_func
 1052              		.fpu fpv5-d16
 1054              	LL_RCC_GetI2CClockFreq:
 1055              		@ args = 0, pretend = 0, frame = 16
 1056              		@ frame_needed = 0, uses_anonymous_args = 0
 1057 0000 1FB5     		push	{r0, r1, r2, r3, r4, lr}
 1058 0002 FFF7FEFF 		bl	LL_RCC_GetClockSource
 1059 0006 2F4B     		ldr	r3, .L239
 1060 0008 9842     		cmp	r0, r3
 1061 000a 51D0     		beq	.L221
 1062 000c 0ED8     		bhi	.L222
 1063 000e A3F58033 		sub	r3, r3, #65536
 1064 0012 9842     		cmp	r0, r3
 1065 0014 2AD0     		beq	.L223
 1066 0016 03F57C43 		add	r3, r3, #64512
 1067 001a 0433     		adds	r3, r3, #4
 1068 001c 9842     		cmp	r0, r3
 1069 001e 47D0     		beq	.L221
ARM GAS  C:\Users\KhanhTD8\AppData\Local\Temp\ccohIgti.s 			page 19


 1070 0020 A3F58033 		sub	r3, r3, #65536
 1071 0024 9842     		cmp	r0, r3
 1072 0026 33D0     		beq	.L224
 1073              	.L230:
 1074 0028 0020     		movs	r0, #0
 1075 002a 2EE0     		b	.L220
 1076              	.L222:
 1077 002c 264B     		ldr	r3, .L239+4
 1078 002e 9842     		cmp	r0, r3
 1079 0030 16D0     		beq	.L226
 1080 0032 12D8     		bhi	.L227
 1081 0034 A3F58033 		sub	r3, r3, #65536
 1082 0038 9842     		cmp	r0, r3
 1083 003a 03D0     		beq	.L228
 1084 003c 03F57F73 		add	r3, r3, #1020
 1085 0040 9842     		cmp	r0, r3
 1086 0042 F1D1     		bne	.L230
 1087              	.L228:
 1088 0044 FFF7FEFF 		bl	LL_RCC_HSI_IsReady
 1089 0048 0028     		cmp	r0, #0
 1090 004a EDD0     		beq	.L230
 1091 004c 1F4B     		ldr	r3, .L239+8
 1092 004e 2048     		ldr	r0, .L239+12
 1093 0050 1B68     		ldr	r3, [r3]
 1094 0052 C3F3C103 		ubfx	r3, r3, #3, #2
 1095 0056 1841     		asrs	r0, r0, r3
 1096 0058 17E0     		b	.L220
 1097              	.L227:
 1098 005a 1E4B     		ldr	r3, .L239+16
 1099 005c 9842     		cmp	r0, r3
 1100 005e E3D1     		bne	.L230
 1101              	.L226:
 1102 0060 FFF7FEFF 		bl	LL_RCC_CSI_IsReady
 1103 0064 0028     		cmp	r0, #0
 1104 0066 DFD0     		beq	.L230
 1105 0068 1B48     		ldr	r0, .L239+20
 1106 006a 0EE0     		b	.L220
 1107              	.L223:
 1108 006c FFF7FEFF 		bl	RCC_GetSystemClockFreq
 1109 0070 164B     		ldr	r3, .L239+8
 1110 0072 1A4A     		ldr	r2, .L239+24
 1111 0074 9B69     		ldr	r3, [r3, #24]
 1112 0076 C3F30323 		ubfx	r3, r3, #8, #4
 1113 007a D35C     		ldrb	r3, [r2, r3]	@ zero_extendqisi2
 1114 007c 03F01F03 		and	r3, r3, #31
 1115 0080 D840     		lsrs	r0, r0, r3
 1116 0082 FFF7FEFF 		bl	RCC_GetHCLKClockFreq
 1117 0086 FFF7FEFF 		bl	RCC_GetPCLK1ClockFreq
 1118              	.L220:
 1119 008a 05B0     		add	sp, sp, #20
 1120              		@ sp needed
 1121 008c 5DF804FB 		ldr	pc, [sp], #4
 1122              	.L224:
 1123 0090 FFF7FEFF 		bl	RCC_GetSystemClockFreq
 1124 0094 0D4B     		ldr	r3, .L239+8
 1125 0096 114A     		ldr	r2, .L239+24
 1126 0098 9B69     		ldr	r3, [r3, #24]
ARM GAS  C:\Users\KhanhTD8\AppData\Local\Temp\ccohIgti.s 			page 20


 1127 009a C3F30323 		ubfx	r3, r3, #8, #4
 1128 009e D35C     		ldrb	r3, [r2, r3]	@ zero_extendqisi2
 1129 00a0 03F01F03 		and	r3, r3, #31
 1130 00a4 D840     		lsrs	r0, r0, r3
 1131 00a6 FFF7FEFF 		bl	RCC_GetHCLKClockFreq
 1132 00aa FFF7FEFF 		bl	RCC_GetPCLK4ClockFreq
 1133 00ae ECE7     		b	.L220
 1134              	.L221:
 1135 00b0 FFF7FEFF 		bl	LL_RCC_PLL3_IsReady
 1136 00b4 0028     		cmp	r0, #0
 1137 00b6 B7D0     		beq	.L230
 1138 00b8 01A8     		add	r0, sp, #4
 1139 00ba FFF7FEFF 		bl	LL_RCC_GetPLL3ClockFreq
 1140 00be 0398     		ldr	r0, [sp, #12]
 1141 00c0 E3E7     		b	.L220
 1142              	.L240:
 1143 00c2 00BF     		.align	2
 1144              	.L239:
 1145 00c4 080C0103 		.word	50400264
 1146 00c8 0C080303 		.word	50530316
 1147 00cc 00440258 		.word	1476543488
 1148 00d0 0090D003 		.word	64000000
 1149 00d4 080C0303 		.word	50531336
 1150 00d8 00093D00 		.word	4000000
 1151 00dc 00000000 		.word	.LANCHOR0
 1153              		.section	.text.LL_RCC_GetSDMMCClockFreq,"ax",%progbits
 1154              		.align	1
 1155              		.global	LL_RCC_GetSDMMCClockFreq
 1156              		.syntax unified
 1157              		.thumb
 1158              		.thumb_func
 1159              		.fpu fpv5-d16
 1161              	LL_RCC_GetSDMMCClockFreq:
 1162              		@ args = 0, pretend = 0, frame = 16
 1163              		@ frame_needed = 0, uses_anonymous_args = 0
 1164 0000 1FB5     		push	{r0, r1, r2, r3, r4, lr}
 1165 0002 0C4B     		ldr	r3, .L251
 1166 0004 DB6C     		ldr	r3, [r3, #76]
 1167 0006 DB03     		lsls	r3, r3, #15
 1168 0008 0BD4     		bmi	.L250
 1169 000a FFF7FEFF 		bl	LL_RCC_PLL1_IsReady
 1170 000e 18B9     		cbnz	r0, .L245
 1171              	.L246:
 1172 0010 0020     		movs	r0, #0
 1173              	.L241:
 1174 0012 05B0     		add	sp, sp, #20
 1175              		@ sp needed
 1176 0014 5DF804FB 		ldr	pc, [sp], #4
 1177              	.L245:
 1178 0018 01A8     		add	r0, sp, #4
 1179 001a FFF7FEFF 		bl	LL_RCC_GetPLL1ClockFreq
 1180 001e 0298     		ldr	r0, [sp, #8]
 1181 0020 F7E7     		b	.L241
 1182              	.L250:
 1183 0022 FFF7FEFF 		bl	LL_RCC_PLL2_IsReady
 1184 0026 0028     		cmp	r0, #0
 1185 0028 F2D0     		beq	.L246
ARM GAS  C:\Users\KhanhTD8\AppData\Local\Temp\ccohIgti.s 			page 21


 1186 002a 01A8     		add	r0, sp, #4
 1187 002c FFF7FEFF 		bl	LL_RCC_GetPLL2ClockFreq
 1188 0030 0398     		ldr	r0, [sp, #12]
 1189 0032 EEE7     		b	.L241
 1190              	.L252:
 1191              		.align	2
 1192              	.L251:
 1193 0034 00440258 		.word	1476543488
 1195              		.section	.text.LL_RCC_GetRNGClockFreq,"ax",%progbits
 1196              		.align	1
 1197              		.global	LL_RCC_GetRNGClockFreq
 1198              		.syntax unified
 1199              		.thumb
 1200              		.thumb_func
 1201              		.fpu fpv5-d16
 1203              	LL_RCC_GetRNGClockFreq:
 1204              		@ args = 0, pretend = 0, frame = 16
 1205              		@ frame_needed = 0, uses_anonymous_args = 0
 1206 0000 1FB5     		push	{r0, r1, r2, r3, r4, lr}
 1207 0002 174A     		ldr	r2, .L270
 1208 0004 536D     		ldr	r3, [r2, #84]
 1209 0006 03F44073 		and	r3, r3, #768
 1210 000a B3F5007F 		cmp	r3, #512
 1211 000e 1FD0     		beq	.L254
 1212 0010 05D8     		bhi	.L255
 1213 0012 C3B1     		cbz	r3, .L256
 1214 0014 B3F5807F 		cmp	r3, #256
 1215 0018 0AD0     		beq	.L257
 1216              	.L260:
 1217 001a 0020     		movs	r0, #0
 1218 001c 10E0     		b	.L253
 1219              	.L255:
 1220 001e B3F5407F 		cmp	r3, #768
 1221 0022 FAD1     		bne	.L260
 1222 0024 536F     		ldr	r3, [r2, #116]
 1223 0026 9B07     		lsls	r3, r3, #30
 1224 0028 F7D5     		bpl	.L260
 1225 002a 4FF4FA40 		mov	r0, #32000
 1226 002e 07E0     		b	.L253
 1227              	.L257:
 1228 0030 FFF7FEFF 		bl	LL_RCC_PLL1_IsReady
 1229 0034 0028     		cmp	r0, #0
 1230 0036 F0D0     		beq	.L260
 1231 0038 01A8     		add	r0, sp, #4
 1232 003a FFF7FEFF 		bl	LL_RCC_GetPLL1ClockFreq
 1233 003e 0298     		ldr	r0, [sp, #8]
 1234              	.L253:
 1235 0040 05B0     		add	sp, sp, #20
 1236              		@ sp needed
 1237 0042 5DF804FB 		ldr	pc, [sp], #4
 1238              	.L256:
 1239 0046 1368     		ldr	r3, [r2]
 1240 0048 9A04     		lsls	r2, r3, #18
 1241 004a E6D5     		bpl	.L260
 1242 004c 0548     		ldr	r0, .L270+4
 1243 004e F7E7     		b	.L253
 1244              	.L254:
ARM GAS  C:\Users\KhanhTD8\AppData\Local\Temp\ccohIgti.s 			page 22


 1245 0050 FFF7FEFF 		bl	LL_RCC_LSE_IsReady
 1246 0054 0028     		cmp	r0, #0
 1247 0056 E0D0     		beq	.L260
 1248 0058 4FF40040 		mov	r0, #32768
 1249 005c F0E7     		b	.L253
 1250              	.L271:
 1251 005e 00BF     		.align	2
 1252              	.L270:
 1253 0060 00440258 		.word	1476543488
 1254 0064 006CDC02 		.word	48000000
 1256              		.section	.text.LL_RCC_GetCECClockFreq,"ax",%progbits
 1257              		.align	1
 1258              		.global	LL_RCC_GetCECClockFreq
 1259              		.syntax unified
 1260              		.thumb
 1261              		.thumb_func
 1262              		.fpu fpv5-d16
 1264              	LL_RCC_GetCECClockFreq:
 1265              		@ args = 0, pretend = 0, frame = 0
 1266              		@ frame_needed = 0, uses_anonymous_args = 0
 1267 0000 104A     		ldr	r2, .L283
 1268 0002 08B5     		push	{r3, lr}
 1269 0004 536D     		ldr	r3, [r2, #84]
 1270 0006 03F44003 		and	r3, r3, #12582912
 1271 000a B3F5800F 		cmp	r3, #4194304
 1272 000e 09D0     		beq	.L273
 1273 0010 B3F5000F 		cmp	r3, #8388608
 1274 0014 0BD0     		beq	.L274
 1275 0016 43B9     		cbnz	r3, .L277
 1276 0018 FFF7FEFF 		bl	LL_RCC_LSE_IsReady
 1277 001c 28B1     		cbz	r0, .L277
 1278 001e 4FF40040 		mov	r0, #32768
 1279 0022 0AE0     		b	.L272
 1280              	.L273:
 1281 0024 536F     		ldr	r3, [r2, #116]
 1282 0026 9B07     		lsls	r3, r3, #30
 1283 0028 08D4     		bmi	.L279
 1284              	.L277:
 1285 002a 0020     		movs	r0, #0
 1286 002c 05E0     		b	.L272
 1287              	.L274:
 1288 002e FFF7FEFF 		bl	LL_RCC_CSI_IsReady
 1289 0032 0028     		cmp	r0, #0
 1290 0034 F9D0     		beq	.L277
 1291 0036 48F21200 		movw	r0, #32786
 1292              	.L272:
 1293 003a 08BD     		pop	{r3, pc}
 1294              	.L279:
 1295 003c 4FF4FA40 		mov	r0, #32000
 1296 0040 FBE7     		b	.L272
 1297              	.L284:
 1298 0042 00BF     		.align	2
 1299              	.L283:
 1300 0044 00440258 		.word	1476543488
 1302              		.section	.text.LL_RCC_GetUSBClockFreq,"ax",%progbits
 1303              		.align	1
 1304              		.global	LL_RCC_GetUSBClockFreq
ARM GAS  C:\Users\KhanhTD8\AppData\Local\Temp\ccohIgti.s 			page 23


 1305              		.syntax unified
 1306              		.thumb
 1307              		.thumb_func
 1308              		.fpu fpv5-d16
 1310              	LL_RCC_GetUSBClockFreq:
 1311              		@ args = 0, pretend = 0, frame = 16
 1312              		@ frame_needed = 0, uses_anonymous_args = 0
 1313 0000 1FB5     		push	{r0, r1, r2, r3, r4, lr}
 1314 0002 124A     		ldr	r2, .L299
 1315 0004 536D     		ldr	r3, [r2, #84]
 1316 0006 03F44013 		and	r3, r3, #3145728
 1317 000a B3F5001F 		cmp	r3, #2097152
 1318 000e 0FD0     		beq	.L286
 1319 0010 B3F5401F 		cmp	r3, #3145728
 1320 0014 13D0     		beq	.L287
 1321 0016 B3F5801F 		cmp	r3, #1048576
 1322 001a 13D1     		bne	.L290
 1323 001c FFF7FEFF 		bl	LL_RCC_PLL1_IsReady
 1324 0020 80B1     		cbz	r0, .L290
 1325 0022 01A8     		add	r0, sp, #4
 1326 0024 FFF7FEFF 		bl	LL_RCC_GetPLL1ClockFreq
 1327              	.L298:
 1328 0028 0298     		ldr	r0, [sp, #8]
 1329              	.L285:
 1330 002a 05B0     		add	sp, sp, #20
 1331              		@ sp needed
 1332 002c 5DF804FB 		ldr	pc, [sp], #4
 1333              	.L286:
 1334 0030 FFF7FEFF 		bl	LL_RCC_PLL3_IsReady
 1335 0034 30B1     		cbz	r0, .L290
 1336 0036 01A8     		add	r0, sp, #4
 1337 0038 FFF7FEFF 		bl	LL_RCC_GetPLL3ClockFreq
 1338 003c F4E7     		b	.L298
 1339              	.L287:
 1340 003e 1368     		ldr	r3, [r2]
 1341 0040 9B04     		lsls	r3, r3, #18
 1342 0042 01D4     		bmi	.L291
 1343              	.L290:
 1344 0044 0020     		movs	r0, #0
 1345 0046 F0E7     		b	.L285
 1346              	.L291:
 1347 0048 0148     		ldr	r0, .L299+4
 1348 004a EEE7     		b	.L285
 1349              	.L300:
 1350              		.align	2
 1351              	.L299:
 1352 004c 00440258 		.word	1476543488
 1353 0050 006CDC02 		.word	48000000
 1355              		.section	.text.LL_RCC_GetDFSDMClockFreq,"ax",%progbits
 1356              		.align	1
 1357              		.global	LL_RCC_GetDFSDMClockFreq
 1358              		.syntax unified
 1359              		.thumb
 1360              		.thumb_func
 1361              		.fpu fpv5-d16
 1363              	LL_RCC_GetDFSDMClockFreq:
 1364              		@ args = 0, pretend = 0, frame = 0
ARM GAS  C:\Users\KhanhTD8\AppData\Local\Temp\ccohIgti.s 			page 24


 1365              		@ frame_needed = 0, uses_anonymous_args = 0
 1366 0000 10B5     		push	{r4, lr}
 1367 0002 0C4C     		ldr	r4, .L304
 1368 0004 236D     		ldr	r3, [r4, #80]
 1369 0006 DB01     		lsls	r3, r3, #7
 1370 0008 03D5     		bpl	.L302
 1371 000a BDE81040 		pop	{r4, lr}
 1372 000e FFF7FEBF 		b	RCC_GetSystemClockFreq
 1373              	.L302:
 1374 0012 FFF7FEFF 		bl	RCC_GetSystemClockFreq
 1375 0016 A369     		ldr	r3, [r4, #24]
 1376 0018 074A     		ldr	r2, .L304+4
 1377 001a C3F30323 		ubfx	r3, r3, #8, #4
 1378 001e D35C     		ldrb	r3, [r2, r3]	@ zero_extendqisi2
 1379 0020 03F01F03 		and	r3, r3, #31
 1380 0024 D840     		lsrs	r0, r0, r3
 1381 0026 FFF7FEFF 		bl	RCC_GetHCLKClockFreq
 1382 002a BDE81040 		pop	{r4, lr}
 1383 002e FFF7FEBF 		b	RCC_GetPCLK2ClockFreq
 1384              	.L305:
 1385 0032 00BF     		.align	2
 1386              	.L304:
 1387 0034 00440258 		.word	1476543488
 1388 0038 00000000 		.word	.LANCHOR0
 1390              		.section	.text.LL_RCC_GetSPDIFClockFreq,"ax",%progbits
 1391              		.align	1
 1392              		.global	LL_RCC_GetSPDIFClockFreq
 1393              		.syntax unified
 1394              		.thumb
 1395              		.thumb_func
 1396              		.fpu fpv5-d16
 1398              	LL_RCC_GetSPDIFClockFreq:
 1399              		@ args = 0, pretend = 0, frame = 16
 1400              		@ frame_needed = 0, uses_anonymous_args = 0
 1401 0000 1FB5     		push	{r0, r1, r2, r3, r4, lr}
 1402 0002 1B4A     		ldr	r2, .L326
 1403 0004 136D     		ldr	r3, [r2, #80]
 1404 0006 03F44013 		and	r3, r3, #3145728
 1405 000a B3F5001F 		cmp	r3, #2097152
 1406 000e 27D0     		beq	.L307
 1407 0010 07D8     		bhi	.L308
 1408 0012 9BB1     		cbz	r3, .L309
 1409 0014 B3F5801F 		cmp	r3, #1048576
 1410 0018 19D0     		beq	.L310
 1411              	.L314:
 1412 001a 0020     		movs	r0, #0
 1413              	.L306:
 1414 001c 05B0     		add	sp, sp, #20
 1415              		@ sp needed
 1416 001e 5DF804FB 		ldr	pc, [sp], #4
 1417              	.L308:
 1418 0022 B3F5401F 		cmp	r3, #3145728
 1419 0026 F8D1     		bne	.L314
 1420 0028 FFF7FEFF 		bl	LL_RCC_HSI_IsReady
 1421 002c 0028     		cmp	r0, #0
 1422 002e F4D0     		beq	.L314
 1423 0030 1368     		ldr	r3, [r2]
ARM GAS  C:\Users\KhanhTD8\AppData\Local\Temp\ccohIgti.s 			page 25


 1424 0032 1048     		ldr	r0, .L326+4
 1425 0034 C3F3C103 		ubfx	r3, r3, #3, #2
 1426 0038 1841     		asrs	r0, r0, r3
 1427 003a EFE7     		b	.L306
 1428              	.L309:
 1429 003c FFF7FEFF 		bl	LL_RCC_PLL1_IsReady
 1430 0040 0028     		cmp	r0, #0
 1431 0042 EAD0     		beq	.L314
 1432 0044 01A8     		add	r0, sp, #4
 1433 0046 FFF7FEFF 		bl	LL_RCC_GetPLL1ClockFreq
 1434 004a 0298     		ldr	r0, [sp, #8]
 1435 004c E6E7     		b	.L306
 1436              	.L310:
 1437 004e FFF7FEFF 		bl	LL_RCC_PLL2_IsReady
 1438 0052 0028     		cmp	r0, #0
 1439 0054 E1D0     		beq	.L314
 1440 0056 01A8     		add	r0, sp, #4
 1441 0058 FFF7FEFF 		bl	LL_RCC_GetPLL2ClockFreq
 1442              	.L324:
 1443 005c 0398     		ldr	r0, [sp, #12]
 1444 005e DDE7     		b	.L306
 1445              	.L307:
 1446 0060 FFF7FEFF 		bl	LL_RCC_PLL3_IsReady
 1447 0064 0028     		cmp	r0, #0
 1448 0066 D8D0     		beq	.L314
 1449 0068 01A8     		add	r0, sp, #4
 1450 006a FFF7FEFF 		bl	LL_RCC_GetPLL3ClockFreq
 1451 006e F5E7     		b	.L324
 1452              	.L327:
 1453              		.align	2
 1454              	.L326:
 1455 0070 00440258 		.word	1476543488
 1456 0074 0090D003 		.word	64000000
 1458              		.section	.text.LL_RCC_GetSWPClockFreq,"ax",%progbits
 1459              		.align	1
 1460              		.global	LL_RCC_GetSWPClockFreq
 1461              		.syntax unified
 1462              		.thumb
 1463              		.thumb_func
 1464              		.fpu fpv5-d16
 1466              	LL_RCC_GetSWPClockFreq:
 1467              		@ args = 0, pretend = 0, frame = 0
 1468              		@ frame_needed = 0, uses_anonymous_args = 0
 1469 0000 10B5     		push	{r4, lr}
 1470 0002 0E4C     		ldr	r4, .L336
 1471 0004 236D     		ldr	r3, [r4, #80]
 1472 0006 002B     		cmp	r3, #0
 1473 0008 0FDB     		blt	.L335
 1474 000a FFF7FEFF 		bl	RCC_GetSystemClockFreq
 1475 000e A369     		ldr	r3, [r4, #24]
 1476 0010 0B4A     		ldr	r2, .L336+4
 1477 0012 C3F30323 		ubfx	r3, r3, #8, #4
 1478 0016 D35C     		ldrb	r3, [r2, r3]	@ zero_extendqisi2
 1479 0018 03F01F03 		and	r3, r3, #31
 1480 001c D840     		lsrs	r0, r0, r3
 1481 001e FFF7FEFF 		bl	RCC_GetHCLKClockFreq
 1482 0022 BDE81040 		pop	{r4, lr}
ARM GAS  C:\Users\KhanhTD8\AppData\Local\Temp\ccohIgti.s 			page 26


 1483 0026 FFF7FEBF 		b	RCC_GetPCLK1ClockFreq
 1484              	.L335:
 1485 002a FFF7FEFF 		bl	LL_RCC_HSI_IsReady
 1486 002e 20B1     		cbz	r0, .L328
 1487 0030 2368     		ldr	r3, [r4]
 1488 0032 0448     		ldr	r0, .L336+8
 1489 0034 C3F3C103 		ubfx	r3, r3, #3, #2
 1490 0038 1841     		asrs	r0, r0, r3
 1491              	.L328:
 1492 003a 10BD     		pop	{r4, pc}
 1493              	.L337:
 1494              		.align	2
 1495              	.L336:
 1496 003c 00440258 		.word	1476543488
 1497 0040 00000000 		.word	.LANCHOR0
 1498 0044 0090D003 		.word	64000000
 1500              		.section	.text.LL_RCC_GetFDCANClockFreq,"ax",%progbits
 1501              		.align	1
 1502              		.global	LL_RCC_GetFDCANClockFreq
 1503              		.syntax unified
 1504              		.thumb
 1505              		.thumb_func
 1506              		.fpu fpv5-d16
 1508              	LL_RCC_GetFDCANClockFreq:
 1509              		@ args = 0, pretend = 0, frame = 16
 1510              		@ frame_needed = 0, uses_anonymous_args = 0
 1511 0000 1FB5     		push	{r0, r1, r2, r3, r4, lr}
 1512 0002 124B     		ldr	r3, .L352
 1513 0004 1B6D     		ldr	r3, [r3, #80]
 1514 0006 03F04053 		and	r3, r3, #805306368
 1515 000a B3F1805F 		cmp	r3, #268435456
 1516 000e 08D0     		beq	.L339
 1517 0010 B3F1005F 		cmp	r3, #536870912
 1518 0014 10D0     		beq	.L340
 1519 0016 13B9     		cbnz	r3, .L343
 1520 0018 FFF7FEFF 		bl	LL_RCC_HSE_IsReady
 1521 001c A0B9     		cbnz	r0, .L344
 1522              	.L343:
 1523 001e 0020     		movs	r0, #0
 1524 0020 07E0     		b	.L338
 1525              	.L339:
 1526 0022 FFF7FEFF 		bl	LL_RCC_PLL1_IsReady
 1527 0026 0028     		cmp	r0, #0
 1528 0028 F9D0     		beq	.L343
 1529 002a 01A8     		add	r0, sp, #4
 1530 002c FFF7FEFF 		bl	LL_RCC_GetPLL1ClockFreq
 1531              	.L351:
 1532 0030 0298     		ldr	r0, [sp, #8]
 1533              	.L338:
 1534 0032 05B0     		add	sp, sp, #20
 1535              		@ sp needed
 1536 0034 5DF804FB 		ldr	pc, [sp], #4
 1537              	.L340:
 1538 0038 FFF7FEFF 		bl	LL_RCC_PLL2_IsReady
 1539 003c 0028     		cmp	r0, #0
 1540 003e EED0     		beq	.L343
 1541 0040 01A8     		add	r0, sp, #4
ARM GAS  C:\Users\KhanhTD8\AppData\Local\Temp\ccohIgti.s 			page 27


 1542 0042 FFF7FEFF 		bl	LL_RCC_GetPLL2ClockFreq
 1543 0046 F3E7     		b	.L351
 1544              	.L344:
 1545 0048 0148     		ldr	r0, .L352+4
 1546 004a F2E7     		b	.L338
 1547              	.L353:
 1548              		.align	2
 1549              	.L352:
 1550 004c 00440258 		.word	1476543488
 1551 0050 40787D01 		.word	25000000
 1553              		.section	.text.LL_RCC_GetCLKPClockFreq,"ax",%progbits
 1554              		.align	1
 1555              		.global	LL_RCC_GetCLKPClockFreq
 1556              		.syntax unified
 1557              		.thumb
 1558              		.thumb_func
 1559              		.fpu fpv5-d16
 1561              	LL_RCC_GetCLKPClockFreq:
 1562              		@ args = 0, pretend = 0, frame = 0
 1563              		@ frame_needed = 0, uses_anonymous_args = 0
 1564 0000 114A     		ldr	r2, .L365
 1565 0002 08B5     		push	{r3, lr}
 1566 0004 D36C     		ldr	r3, [r2, #76]
 1567 0006 03F04053 		and	r3, r3, #805306368
 1568 000a B3F1805F 		cmp	r3, #268435456
 1569 000e 0ED0     		beq	.L355
 1570 0010 B3F1005F 		cmp	r3, #536870912
 1571 0014 11D0     		beq	.L356
 1572 0016 13B9     		cbnz	r3, .L360
 1573 0018 FFF7FEFF 		bl	LL_RCC_HSI_IsReady
 1574 001c 08B9     		cbnz	r0, .L358
 1575              	.L360:
 1576 001e 0020     		movs	r0, #0
 1577 0020 04E0     		b	.L354
 1578              	.L358:
 1579 0022 1368     		ldr	r3, [r2]
 1580 0024 0948     		ldr	r0, .L365+4
 1581 0026 C3F3C103 		ubfx	r3, r3, #3, #2
 1582 002a 1841     		asrs	r0, r0, r3
 1583              	.L354:
 1584 002c 08BD     		pop	{r3, pc}
 1585              	.L355:
 1586 002e FFF7FEFF 		bl	LL_RCC_CSI_IsReady
 1587 0032 0028     		cmp	r0, #0
 1588 0034 F3D0     		beq	.L360
 1589 0036 0648     		ldr	r0, .L365+8
 1590 0038 F8E7     		b	.L354
 1591              	.L356:
 1592 003a FFF7FEFF 		bl	LL_RCC_HSE_IsReady
 1593 003e 0028     		cmp	r0, #0
 1594 0040 EDD0     		beq	.L360
 1595 0042 0448     		ldr	r0, .L365+12
 1596 0044 F2E7     		b	.L354
 1597              	.L366:
 1598 0046 00BF     		.align	2
 1599              	.L365:
 1600 0048 00440258 		.word	1476543488
ARM GAS  C:\Users\KhanhTD8\AppData\Local\Temp\ccohIgti.s 			page 28


 1601 004c 0090D003 		.word	64000000
 1602 0050 00093D00 		.word	4000000
 1603 0054 40787D01 		.word	25000000
 1605              		.section	.text.LL_RCC_GetLPTIMClockFreq,"ax",%progbits
 1606              		.align	1
 1607              		.global	LL_RCC_GetLPTIMClockFreq
 1608              		.syntax unified
 1609              		.thumb
 1610              		.thumb_func
 1611              		.fpu fpv5-d16
 1613              	LL_RCC_GetLPTIMClockFreq:
 1614              		@ args = 0, pretend = 0, frame = 16
 1615              		@ frame_needed = 0, uses_anonymous_args = 0
 1616 0000 1FB5     		push	{r0, r1, r2, r3, r4, lr}
 1617 0002 FFF7FEFF 		bl	LL_RCC_GetClockSource
 1618 0006 4A4B     		ldr	r3, .L395
 1619 0008 9842     		cmp	r0, r3
 1620 000a 29D0     		beq	.L368
 1621 000c 31D8     		bhi	.L369
 1622 000e A3F5F833 		sub	r3, r3, #126976
 1623 0012 A3F58273 		sub	r3, r3, #260
 1624 0016 9842     		cmp	r0, r3
 1625 0018 67D0     		beq	.L370
 1626 001a 08D8     		bhi	.L371
 1627 001c 454B     		ldr	r3, .L395+4
 1628 001e 9842     		cmp	r0, r3
 1629 0020 75D0     		beq	.L372
 1630 0022 03F54073 		add	r3, r3, #768
 1631 0026 9842     		cmp	r0, r3
 1632 0028 71D0     		beq	.L372
 1633              	.L382:
 1634 002a 0020     		movs	r0, #0
 1635 002c 6CE0     		b	.L367
 1636              	.L371:
 1637 002e 424B     		ldr	r3, .L395+8
 1638 0030 9842     		cmp	r0, r3
 1639 0032 09D0     		beq	.L374
 1640 0034 11D8     		bhi	.L375
 1641 0036 A3F58F53 		sub	r3, r3, #4576
 1642 003a 1C3B     		subs	r3, r3, #28
 1643 003c 9842     		cmp	r0, r3
 1644 003e 03D0     		beq	.L374
 1645 0040 03F54073 		add	r3, r3, #768
 1646 0044 9842     		cmp	r0, r3
 1647 0046 F0D1     		bne	.L382
 1648              	.L374:
 1649 0048 FFF7FEFF 		bl	LL_RCC_PLL2_IsReady
 1650 004c 0028     		cmp	r0, #0
 1651 004e ECD0     		beq	.L382
 1652 0050 01A8     		add	r0, sp, #4
 1653 0052 FFF7FEFF 		bl	LL_RCC_GetPLL2ClockFreq
 1654 0056 0198     		ldr	r0, [sp, #4]
 1655 0058 56E0     		b	.L367
 1656              	.L375:
 1657 005a 384B     		ldr	r3, .L395+12
 1658 005c 9842     		cmp	r0, r3
 1659 005e E4D1     		bne	.L382
ARM GAS  C:\Users\KhanhTD8\AppData\Local\Temp\ccohIgti.s 			page 29


 1660              	.L368:
 1661 0060 FFF7FEFF 		bl	LL_RCC_PLL3_IsReady
 1662 0064 0028     		cmp	r0, #0
 1663 0066 E0D0     		beq	.L382
 1664 0068 01A8     		add	r0, sp, #4
 1665 006a FFF7FEFF 		bl	LL_RCC_GetPLL3ClockFreq
 1666 006e 0398     		ldr	r0, [sp, #12]
 1667 0070 4AE0     		b	.L367
 1668              	.L369:
 1669 0072 334B     		ldr	r3, .L395+16
 1670 0074 9842     		cmp	r0, r3
 1671 0076 1CD0     		beq	.L376
 1672 0078 22D8     		bhi	.L377
 1673 007a A3F58033 		sub	r3, r3, #65536
 1674 007e 9842     		cmp	r0, r3
 1675 0080 08D0     		beq	.L378
 1676 0082 0ED8     		bhi	.L379
 1677 0084 2F4B     		ldr	r3, .L395+20
 1678 0086 9842     		cmp	r0, r3
 1679 0088 EAD0     		beq	.L368
 1680 008a 03F56E43 		add	r3, r3, #60928
 1681 008e 0433     		adds	r3, r3, #4
 1682 0090 9842     		cmp	r0, r3
 1683 0092 CAD1     		bne	.L382
 1684              	.L378:
 1685 0094 FFF7FEFF 		bl	LL_RCC_LSE_IsReady
 1686 0098 0028     		cmp	r0, #0
 1687 009a C6D0     		beq	.L382
 1688 009c 4FF40040 		mov	r0, #32768
 1689 00a0 32E0     		b	.L367
 1690              	.L379:
 1691 00a2 294B     		ldr	r3, .L395+24
 1692 00a4 9842     		cmp	r0, r3
 1693 00a6 F5D0     		beq	.L378
 1694 00a8 03F56E43 		add	r3, r3, #60928
 1695 00ac 0433     		adds	r3, r3, #4
 1696 00ae 9842     		cmp	r0, r3
 1697 00b0 BBD1     		bne	.L382
 1698              	.L376:
 1699 00b2 264B     		ldr	r3, .L395+28
 1700 00b4 5B6F     		ldr	r3, [r3, #116]
 1701 00b6 9B07     		lsls	r3, r3, #30
 1702 00b8 B7D5     		bpl	.L382
 1703 00ba 4FF4FA40 		mov	r0, #32000
 1704 00be 23E0     		b	.L367
 1705              	.L377:
 1706 00c0 234B     		ldr	r3, .L395+32
 1707 00c2 9842     		cmp	r0, r3
 1708 00c4 0AD0     		beq	.L380
 1709 00c6 0ED8     		bhi	.L381
 1710 00c8 A3F57143 		sub	r3, r3, #61696
 1711 00cc 043B     		subs	r3, r3, #4
 1712 00ce 9842     		cmp	r0, r3
 1713 00d0 EFD0     		beq	.L376
 1714 00d2 03F56E43 		add	r3, r3, #60928
 1715 00d6 0433     		adds	r3, r3, #4
 1716              	.L394:
ARM GAS  C:\Users\KhanhTD8\AppData\Local\Temp\ccohIgti.s 			page 30


 1717 00d8 9842     		cmp	r0, r3
 1718 00da A6D1     		bne	.L382
 1719              	.L380:
 1720 00dc 4FF04050 		mov	r0, #805306368
 1721 00e0 FFF7FEFF 		bl	LL_RCC_GetCLKPClockFreq
 1722 00e4 10E0     		b	.L367
 1723              	.L381:
 1724 00e6 1B4B     		ldr	r3, .L395+36
 1725 00e8 F6E7     		b	.L394
 1726              	.L370:
 1727 00ea FFF7FEFF 		bl	RCC_GetSystemClockFreq
 1728 00ee 174B     		ldr	r3, .L395+28
 1729 00f0 194A     		ldr	r2, .L395+40
 1730 00f2 9B69     		ldr	r3, [r3, #24]
 1731 00f4 C3F30323 		ubfx	r3, r3, #8, #4
 1732 00f8 D35C     		ldrb	r3, [r2, r3]	@ zero_extendqisi2
 1733 00fa 03F01F03 		and	r3, r3, #31
 1734 00fe D840     		lsrs	r0, r0, r3
 1735 0100 FFF7FEFF 		bl	RCC_GetHCLKClockFreq
 1736 0104 FFF7FEFF 		bl	RCC_GetPCLK1ClockFreq
 1737              	.L367:
 1738 0108 05B0     		add	sp, sp, #20
 1739              		@ sp needed
 1740 010a 5DF804FB 		ldr	pc, [sp], #4
 1741              	.L372:
 1742 010e FFF7FEFF 		bl	RCC_GetSystemClockFreq
 1743 0112 0E4B     		ldr	r3, .L395+28
 1744 0114 104A     		ldr	r2, .L395+40
 1745 0116 9B69     		ldr	r3, [r3, #24]
 1746 0118 C3F30323 		ubfx	r3, r3, #8, #4
 1747 011c D35C     		ldrb	r3, [r2, r3]	@ zero_extendqisi2
 1748 011e 03F01F03 		and	r3, r3, #31
 1749 0122 D840     		lsrs	r0, r0, r3
 1750 0124 FFF7FEFF 		bl	RCC_GetHCLKClockFreq
 1751 0128 FFF7FEFF 		bl	RCC_GetPCLK4ClockFreq
 1752 012c ECE7     		b	.L367
 1753              	.L396:
 1754 012e 00BF     		.align	2
 1755              	.L395:
 1756 0130 0C0D0207 		.word	117574924
 1757 0134 0C0A0007 		.word	117443084
 1758 0138 081C0107 		.word	117513224
 1759 013c 0C0A0207 		.word	117574156
 1760 0140 0C0D0407 		.word	117705996
 1761 0144 081C0207 		.word	117578760
 1762 0148 081C0307 		.word	117644296
 1763 014c 00440258 		.word	1476543488
 1764 0150 0C0D0507 		.word	117771532
 1765 0154 081C0507 		.word	117775368
 1766 0158 00000000 		.word	.LANCHOR0
 1768              		.section	.text.LL_RCC_GetSAIClockFreq,"ax",%progbits
 1769              		.align	1
 1770              		.global	LL_RCC_GetSAIClockFreq
 1771              		.syntax unified
 1772              		.thumb
 1773              		.thumb_func
 1774              		.fpu fpv5-d16
ARM GAS  C:\Users\KhanhTD8\AppData\Local\Temp\ccohIgti.s 			page 31


 1776              	LL_RCC_GetSAIClockFreq:
 1777              		@ args = 0, pretend = 0, frame = 16
 1778              		@ frame_needed = 0, uses_anonymous_args = 0
 1779 0000 1FB5     		push	{r0, r1, r2, r3, r4, lr}
 1780 0002 FFF7FEFF 		bl	LL_RCC_GetClockSource
 1781 0006 3C4B     		ldr	r3, .L430
 1782 0008 9842     		cmp	r0, r3
 1783 000a 36D0     		beq	.L398
 1784 000c 3DD8     		bhi	.L399
 1785 000e A3F58733 		sub	r3, r3, #69120
 1786 0012 A3F58473 		sub	r3, r3, #264
 1787 0016 9842     		cmp	r0, r3
 1788 0018 17D0     		beq	.L400
 1789 001a 1FD8     		bhi	.L401
 1790 001c A3F57043 		sub	r3, r3, #61440
 1791 0020 F83B     		subs	r3, r3, #248
 1792 0022 9842     		cmp	r0, r3
 1793 0024 5DD0     		beq	.L402
 1794 0026 08D8     		bhi	.L403
 1795 0028 344B     		ldr	r3, .L430+4
 1796 002a 9842     		cmp	r0, r3
 1797 002c 59D0     		beq	.L402
 1798 002e 03F5C063 		add	r3, r3, #1536
 1799 0032 9842     		cmp	r0, r3
 1800 0034 55D0     		beq	.L402
 1801              	.L411:
 1802 0036 0020     		movs	r0, #0
 1803 0038 3CE0     		b	.L397
 1804              	.L403:
 1805 003a 314B     		ldr	r3, .L430+8
 1806 003c 9842     		cmp	r0, r3
 1807 003e 50D0     		beq	.L402
 1808 0040 03F56743 		add	r3, r3, #59136
 1809 0044 F833     		adds	r3, r3, #248
 1810              	.L427:
 1811 0046 9842     		cmp	r0, r3
 1812 0048 F5D1     		bne	.L411
 1813              	.L400:
 1814 004a FFF7FEFF 		bl	LL_RCC_PLL2_IsReady
 1815 004e 0028     		cmp	r0, #0
 1816 0050 F1D0     		beq	.L411
 1817 0052 01A8     		add	r0, sp, #4
 1818 0054 FFF7FEFF 		bl	LL_RCC_GetPLL2ClockFreq
 1819              	.L424:
 1820 0058 0198     		ldr	r0, [sp, #4]
 1821 005a 2BE0     		b	.L397
 1822              	.L401:
 1823 005c 294B     		ldr	r3, .L430+12
 1824 005e 9842     		cmp	r0, r3
 1825 0060 0BD0     		beq	.L398
 1826 0062 07D8     		bhi	.L405
 1827 0064 A3F56A43 		sub	r3, r3, #59904
 1828 0068 F83B     		subs	r3, r3, #248
 1829 006a 9842     		cmp	r0, r3
 1830 006c EDD0     		beq	.L400
 1831 006e 03F54073 		add	r3, r3, #768
 1832 0072 E8E7     		b	.L427
ARM GAS  C:\Users\KhanhTD8\AppData\Local\Temp\ccohIgti.s 			page 32


 1833              	.L405:
 1834 0074 244B     		ldr	r3, .L430+16
 1835 0076 9842     		cmp	r0, r3
 1836 0078 DDD1     		bne	.L411
 1837              	.L398:
 1838 007a FFF7FEFF 		bl	LL_RCC_PLL3_IsReady
 1839 007e 0028     		cmp	r0, #0
 1840 0080 D9D0     		beq	.L411
 1841 0082 01A8     		add	r0, sp, #4
 1842 0084 FFF7FEFF 		bl	LL_RCC_GetPLL3ClockFreq
 1843 0088 E6E7     		b	.L424
 1844              	.L399:
 1845 008a 204B     		ldr	r3, .L430+20
 1846 008c 9842     		cmp	r0, r3
 1847 008e 31D0     		beq	.L413
 1848 0090 15D8     		bhi	.L406
 1849 0092 A3F59053 		sub	r3, r3, #4608
 1850 0096 083B     		subs	r3, r3, #8
 1851 0098 9842     		cmp	r0, r3
 1852 009a 2BD0     		beq	.L413
 1853 009c 0DD8     		bhi	.L407
 1854 009e A3F56D43 		sub	r3, r3, #60672
 1855 00a2 F83B     		subs	r3, r3, #248
 1856 00a4 9842     		cmp	r0, r3
 1857 00a6 E8D0     		beq	.L398
 1858 00a8 194A     		ldr	r2, .L430+24
 1859              	.L423:
 1860 00aa 1A4B     		ldr	r3, .L430+28
 1861 00ac 9042     		cmp	r0, r2
 1862 00ae 0CBF     		ite	eq
 1863 00b0 1846     		moveq	r0, r3
 1864 00b2 0020     		movne	r0, #0
 1865              	.L397:
 1866 00b4 05B0     		add	sp, sp, #20
 1867              		@ sp needed
 1868 00b6 5DF804FB 		ldr	pc, [sp], #4
 1869              	.L407:
 1870 00ba 174A     		ldr	r2, .L430+32
 1871 00bc F5E7     		b	.L423
 1872              	.L406:
 1873 00be 174B     		ldr	r3, .L430+36
 1874 00c0 9842     		cmp	r0, r3
 1875 00c2 07D0     		beq	.L408
 1876 00c4 0BD8     		bhi	.L409
 1877 00c6 164B     		ldr	r3, .L430+40
 1878 00c8 9842     		cmp	r0, r3
 1879 00ca 03D0     		beq	.L408
 1880 00cc 03F5C063 		add	r3, r3, #1536
 1881              	.L429:
 1882 00d0 9842     		cmp	r0, r3
 1883 00d2 B0D1     		bne	.L411
 1884              	.L408:
 1885 00d4 4FF04050 		mov	r0, #805306368
 1886 00d8 FFF7FEFF 		bl	LL_RCC_GetCLKPClockFreq
 1887 00dc EAE7     		b	.L397
 1888              	.L409:
 1889 00de 114B     		ldr	r3, .L430+44
ARM GAS  C:\Users\KhanhTD8\AppData\Local\Temp\ccohIgti.s 			page 33


 1890 00e0 F6E7     		b	.L429
 1891              	.L402:
 1892 00e2 FFF7FEFF 		bl	LL_RCC_PLL1_IsReady
 1893 00e6 0028     		cmp	r0, #0
 1894 00e8 A5D0     		beq	.L411
 1895 00ea 01A8     		add	r0, sp, #4
 1896 00ec FFF7FEFF 		bl	LL_RCC_GetPLL1ClockFreq
 1897 00f0 0298     		ldr	r0, [sp, #8]
 1898 00f2 DFE7     		b	.L397
 1899              	.L413:
 1900 00f4 0748     		ldr	r0, .L430+28
 1901 00f6 DDE7     		b	.L397
 1902              	.L431:
 1903              		.align	2
 1904              	.L430:
 1905 00f8 0C150207 		.word	117576972
 1906 00fc 04000007 		.word	117440516
 1907 0100 0C180007 		.word	117446668
 1908 0104 04000207 		.word	117571588
 1909 0108 04060207 		.word	117573124
 1910 010c 0C180307 		.word	117643276
 1911 0110 04000307 		.word	117637124
 1912 0114 0080BB00 		.word	12288000
 1913 0118 0C150307 		.word	117642508
 1914 011c 0C150407 		.word	117708044
 1915 0120 04000407 		.word	117702660
 1916 0124 0C180407 		.word	117708812
 1918              		.section	.text.LL_RCC_GetADCClockFreq,"ax",%progbits
 1919              		.align	1
 1920              		.global	LL_RCC_GetADCClockFreq
 1921              		.syntax unified
 1922              		.thumb
 1923              		.thumb_func
 1924              		.fpu fpv5-d16
 1926              	LL_RCC_GetADCClockFreq:
 1927              		@ args = 0, pretend = 0, frame = 16
 1928              		@ frame_needed = 0, uses_anonymous_args = 0
 1929 0000 1FB5     		push	{r0, r1, r2, r3, r4, lr}
 1930 0002 124B     		ldr	r3, .L442
 1931 0004 9B6D     		ldr	r3, [r3, #88]
 1932 0006 03F44033 		and	r3, r3, #196608
 1933 000a B3F5803F 		cmp	r3, #65536
 1934 000e 0FD0     		beq	.L433
 1935 0010 B3F5003F 		cmp	r3, #131072
 1936 0014 15D0     		beq	.L434
 1937 0016 13B9     		cbnz	r3, .L438
 1938 0018 FFF7FEFF 		bl	LL_RCC_PLL2_IsReady
 1939 001c 08B9     		cbnz	r0, .L436
 1940              	.L438:
 1941 001e 0020     		movs	r0, #0
 1942 0020 03E0     		b	.L432
 1943              	.L436:
 1944 0022 01A8     		add	r0, sp, #4
 1945 0024 FFF7FEFF 		bl	LL_RCC_GetPLL2ClockFreq
 1946 0028 0198     		ldr	r0, [sp, #4]
 1947              	.L432:
 1948 002a 05B0     		add	sp, sp, #20
ARM GAS  C:\Users\KhanhTD8\AppData\Local\Temp\ccohIgti.s 			page 34


 1949              		@ sp needed
 1950 002c 5DF804FB 		ldr	pc, [sp], #4
 1951              	.L433:
 1952 0030 FFF7FEFF 		bl	LL_RCC_PLL3_IsReady
 1953 0034 0028     		cmp	r0, #0
 1954 0036 F2D0     		beq	.L438
 1955 0038 01A8     		add	r0, sp, #4
 1956 003a FFF7FEFF 		bl	LL_RCC_GetPLL3ClockFreq
 1957 003e 0398     		ldr	r0, [sp, #12]
 1958 0040 F3E7     		b	.L432
 1959              	.L434:
 1960 0042 4FF04050 		mov	r0, #805306368
 1961 0046 FFF7FEFF 		bl	LL_RCC_GetCLKPClockFreq
 1962 004a EEE7     		b	.L432
 1963              	.L443:
 1964              		.align	2
 1965              	.L442:
 1966 004c 00440258 		.word	1476543488
 1968              		.section	.text.LL_RCC_GetSPIClockFreq,"ax",%progbits
 1969              		.align	1
 1970              		.global	LL_RCC_GetSPIClockFreq
 1971              		.syntax unified
 1972              		.thumb
 1973              		.thumb_func
 1974              		.fpu fpv5-d16
 1976              	LL_RCC_GetSPIClockFreq:
 1977              		@ args = 0, pretend = 0, frame = 16
 1978              		@ frame_needed = 0, uses_anonymous_args = 0
 1979 0000 1FB5     		push	{r0, r1, r2, r3, r4, lr}
 1980 0002 FFF7FEFF 		bl	LL_RCC_GetClockSource
 1981 0006 594B     		ldr	r3, .L491
 1982 0008 9842     		cmp	r0, r3
 1983 000a 38D0     		beq	.L445
 1984 000c 29D8     		bhi	.L446
 1985 000e A3F58233 		sub	r3, r3, #66560
 1986 0012 9842     		cmp	r0, r3
 1987 0014 71D0     		beq	.L447
 1988 0016 10D8     		bhi	.L448
 1989 0018 A3F57C43 		sub	r3, r3, #64512
 1990 001c 9842     		cmp	r0, r3
 1991 001e 00F08280 		beq	.L449
 1992 0022 03F60843 		addw	r3, r3, #3080
 1993 0026 9842     		cmp	r0, r3
 1994 0028 00F08D80 		beq	.L450
 1995 002c 504B     		ldr	r3, .L491+4
 1996 002e 9842     		cmp	r0, r3
 1997 0030 5AD0     		beq	.L451
 1998              	.L463:
 1999 0032 0020     		movs	r0, #0
 2000              	.L444:
 2001 0034 05B0     		add	sp, sp, #20
 2002              		@ sp needed
 2003 0036 5DF804FB 		ldr	pc, [sp], #4
 2004              	.L448:
 2005 003a 4E4B     		ldr	r3, .L491+8
 2006 003c 9842     		cmp	r0, r3
 2007 003e 08D0     		beq	.L453
ARM GAS  C:\Users\KhanhTD8\AppData\Local\Temp\ccohIgti.s 			page 35


 2008 0040 03F56F43 		add	r3, r3, #61184
 2009 0044 F833     		adds	r3, r3, #248
 2010 0046 9842     		cmp	r0, r3
 2011 0048 60D0     		beq	.L454
 2012 004a A3F57C43 		sub	r3, r3, #64512
 2013 004e 9842     		cmp	r0, r3
 2014 0050 EFD1     		bne	.L463
 2015              	.L453:
 2016 0052 FFF7FEFF 		bl	LL_RCC_PLL2_IsReady
 2017 0056 0028     		cmp	r0, #0
 2018 0058 EBD0     		beq	.L463
 2019 005a 01A8     		add	r0, sp, #4
 2020 005c FFF7FEFF 		bl	LL_RCC_GetPLL2ClockFreq
 2021 0060 49E0     		b	.L488
 2022              	.L446:
 2023 0062 454B     		ldr	r3, .L491+12
 2024 0064 9842     		cmp	r0, r3
 2025 0066 59D0     		beq	.L455
 2026 0068 23D8     		bhi	.L456
 2027 006a A3F58033 		sub	r3, r3, #65536
 2028 006e 9842     		cmp	r0, r3
 2029 0070 79D0     		beq	.L464
 2030 0072 0CD8     		bhi	.L457
 2031 0074 A3F56F43 		sub	r3, r3, #61184
 2032 0078 F83B     		subs	r3, r3, #248
 2033 007a 9842     		cmp	r0, r3
 2034 007c D9D1     		bne	.L463
 2035              	.L445:
 2036 007e FFF7FEFF 		bl	LL_RCC_PLL3_IsReady
 2037 0082 0028     		cmp	r0, #0
 2038 0084 D5D0     		beq	.L463
 2039 0086 01A8     		add	r0, sp, #4
 2040 0088 FFF7FEFF 		bl	LL_RCC_GetPLL3ClockFreq
 2041 008c 33E0     		b	.L488
 2042              	.L457:
 2043 008e 3B4B     		ldr	r3, .L491+16
 2044 0090 9842     		cmp	r0, r3
 2045 0092 03D0     		beq	.L458
 2046 0094 03F60843 		addw	r3, r3, #3080
 2047 0098 9842     		cmp	r0, r3
 2048 009a CAD1     		bne	.L463
 2049              	.L458:
 2050 009c FFF7FEFF 		bl	LL_RCC_HSI_IsReady
 2051 00a0 0028     		cmp	r0, #0
 2052 00a2 C6D0     		beq	.L463
 2053 00a4 364B     		ldr	r3, .L491+20
 2054 00a6 3748     		ldr	r0, .L491+24
 2055 00a8 1B68     		ldr	r3, [r3]
 2056 00aa C3F3C103 		ubfx	r3, r3, #3, #2
 2057 00ae 1841     		asrs	r0, r0, r3
 2058 00b0 C0E7     		b	.L444
 2059              	.L456:
 2060 00b2 354B     		ldr	r3, .L491+28
 2061 00b4 9842     		cmp	r0, r3
 2062 00b6 11D0     		beq	.L459
 2063 00b8 0DD8     		bhi	.L460
 2064 00ba A3F58033 		sub	r3, r3, #65536
ARM GAS  C:\Users\KhanhTD8\AppData\Local\Temp\ccohIgti.s 			page 36


 2065 00be 9842     		cmp	r0, r3
 2066 00c0 03D0     		beq	.L461
 2067 00c2 03F60843 		addw	r3, r3, #3080
 2068 00c6 9842     		cmp	r0, r3
 2069 00c8 B3D1     		bne	.L463
 2070              	.L461:
 2071 00ca FFF7FEFF 		bl	LL_RCC_CSI_IsReady
 2072 00ce 0028     		cmp	r0, #0
 2073 00d0 AFD0     		beq	.L463
 2074 00d2 2E48     		ldr	r0, .L491+32
 2075 00d4 AEE7     		b	.L444
 2076              	.L460:
 2077 00d6 2E4B     		ldr	r3, .L491+36
 2078 00d8 9842     		cmp	r0, r3
 2079 00da AAD1     		bne	.L463
 2080              	.L459:
 2081 00dc FFF7FEFF 		bl	LL_RCC_HSE_IsReady
 2082 00e0 0028     		cmp	r0, #0
 2083 00e2 A6D0     		beq	.L463
 2084 00e4 2B48     		ldr	r0, .L491+40
 2085 00e6 A5E7     		b	.L444
 2086              	.L451:
 2087 00e8 FFF7FEFF 		bl	LL_RCC_PLL1_IsReady
 2088 00ec 0028     		cmp	r0, #0
 2089 00ee A0D0     		beq	.L463
 2090 00f0 01A8     		add	r0, sp, #4
 2091 00f2 FFF7FEFF 		bl	LL_RCC_GetPLL1ClockFreq
 2092              	.L488:
 2093 00f6 0298     		ldr	r0, [sp, #8]
 2094 00f8 9CE7     		b	.L444
 2095              	.L447:
 2096 00fa FFF7FEFF 		bl	LL_RCC_PLL2_IsReady
 2097 00fe 0028     		cmp	r0, #0
 2098 0100 97D0     		beq	.L463
 2099 0102 01A8     		add	r0, sp, #4
 2100 0104 FFF7FEFF 		bl	LL_RCC_GetPLL2ClockFreq
 2101              	.L490:
 2102 0108 0198     		ldr	r0, [sp, #4]
 2103 010a 93E7     		b	.L444
 2104              	.L454:
 2105 010c FFF7FEFF 		bl	LL_RCC_PLL3_IsReady
 2106 0110 0028     		cmp	r0, #0
 2107 0112 8ED0     		beq	.L463
 2108 0114 01A8     		add	r0, sp, #4
 2109 0116 FFF7FEFF 		bl	LL_RCC_GetPLL3ClockFreq
 2110 011a F5E7     		b	.L490
 2111              	.L455:
 2112 011c 4FF04050 		mov	r0, #805306368
 2113 0120 FFF7FEFF 		bl	LL_RCC_GetCLKPClockFreq
 2114 0124 86E7     		b	.L444
 2115              	.L449:
 2116 0126 FFF7FEFF 		bl	RCC_GetSystemClockFreq
 2117 012a 154B     		ldr	r3, .L491+20
 2118 012c 1A4A     		ldr	r2, .L491+44
 2119 012e 9B69     		ldr	r3, [r3, #24]
 2120 0130 C3F30323 		ubfx	r3, r3, #8, #4
 2121 0134 D35C     		ldrb	r3, [r2, r3]	@ zero_extendqisi2
ARM GAS  C:\Users\KhanhTD8\AppData\Local\Temp\ccohIgti.s 			page 37


 2122 0136 03F01F03 		and	r3, r3, #31
 2123 013a D840     		lsrs	r0, r0, r3
 2124 013c FFF7FEFF 		bl	RCC_GetHCLKClockFreq
 2125 0140 FFF7FEFF 		bl	RCC_GetPCLK2ClockFreq
 2126 0144 76E7     		b	.L444
 2127              	.L450:
 2128 0146 FFF7FEFF 		bl	RCC_GetSystemClockFreq
 2129 014a 0D4B     		ldr	r3, .L491+20
 2130 014c 124A     		ldr	r2, .L491+44
 2131 014e 9B69     		ldr	r3, [r3, #24]
 2132 0150 C3F30323 		ubfx	r3, r3, #8, #4
 2133 0154 D35C     		ldrb	r3, [r2, r3]	@ zero_extendqisi2
 2134 0156 03F01F03 		and	r3, r3, #31
 2135 015a D840     		lsrs	r0, r0, r3
 2136 015c FFF7FEFF 		bl	RCC_GetHCLKClockFreq
 2137 0160 FFF7FEFF 		bl	RCC_GetPCLK4ClockFreq
 2138 0164 66E7     		b	.L444
 2139              	.L464:
 2140 0166 0D48     		ldr	r0, .L491+48
 2141 0168 64E7     		b	.L444
 2142              	.L492:
 2143 016a 00BF     		.align	2
 2144              	.L491:
 2145 016c 04100207 		.word	117575684
 2146 0170 040C0007 		.word	117443588
 2147 0174 0C1C0107 		.word	117513228
 2148 0178 040C0407 		.word	117705732
 2149 017c 04100307 		.word	117641220
 2150 0180 00440258 		.word	1476543488
 2151 0184 0090D003 		.word	64000000
 2152 0188 04100507 		.word	117772292
 2153 018c 00093D00 		.word	4000000
 2154 0190 0C1C0507 		.word	117775372
 2155 0194 40787D01 		.word	25000000
 2156 0198 00000000 		.word	.LANCHOR0
 2157 019c 0080BB00 		.word	12288000
 2159              		.section	.text.LL_RCC_GetFMCClockFreq,"ax",%progbits
 2160              		.align	1
 2161              		.global	LL_RCC_GetFMCClockFreq
 2162              		.syntax unified
 2163              		.thumb
 2164              		.thumb_func
 2165              		.fpu fpv5-d16
 2167              	LL_RCC_GetFMCClockFreq:
 2168              		@ args = 0, pretend = 0, frame = 16
 2169              		@ frame_needed = 0, uses_anonymous_args = 0
 2170 0000 1FB5     		push	{r0, r1, r2, r3, r4, lr}
 2171 0002 184C     		ldr	r4, .L503
 2172 0004 E36C     		ldr	r3, [r4, #76]
 2173 0006 03F00303 		and	r3, r3, #3
 2174 000a 022B     		cmp	r3, #2
 2175 000c 1BD0     		beq	.L494
 2176 000e 032B     		cmp	r3, #3
 2177 0010 22D0     		beq	.L495
 2178 0012 012B     		cmp	r3, #1
 2179 0014 0DD0     		beq	.L496
 2180 0016 FFF7FEFF 		bl	RCC_GetSystemClockFreq
ARM GAS  C:\Users\KhanhTD8\AppData\Local\Temp\ccohIgti.s 			page 38


 2181 001a A369     		ldr	r3, [r4, #24]
 2182 001c 124A     		ldr	r2, .L503+4
 2183 001e C3F30323 		ubfx	r3, r3, #8, #4
 2184 0022 D35C     		ldrb	r3, [r2, r3]	@ zero_extendqisi2
 2185 0024 03F01F03 		and	r3, r3, #31
 2186 0028 D840     		lsrs	r0, r0, r3
 2187 002a FFF7FEFF 		bl	RCC_GetHCLKClockFreq
 2188              	.L493:
 2189 002e 04B0     		add	sp, sp, #16
 2190              		@ sp needed
 2191 0030 10BD     		pop	{r4, pc}
 2192              	.L496:
 2193 0032 FFF7FEFF 		bl	LL_RCC_PLL1_IsReady
 2194 0036 08B9     		cbnz	r0, .L498
 2195              	.L499:
 2196 0038 0020     		movs	r0, #0
 2197 003a F8E7     		b	.L493
 2198              	.L498:
 2199 003c 01A8     		add	r0, sp, #4
 2200 003e FFF7FEFF 		bl	LL_RCC_GetPLL1ClockFreq
 2201 0042 0298     		ldr	r0, [sp, #8]
 2202 0044 F3E7     		b	.L493
 2203              	.L494:
 2204 0046 FFF7FEFF 		bl	LL_RCC_PLL2_IsReady
 2205 004a 0028     		cmp	r0, #0
 2206 004c F4D0     		beq	.L499
 2207 004e 01A8     		add	r0, sp, #4
 2208 0050 FFF7FEFF 		bl	LL_RCC_GetPLL2ClockFreq
 2209 0054 0398     		ldr	r0, [sp, #12]
 2210 0056 EAE7     		b	.L493
 2211              	.L495:
 2212 0058 4FF04050 		mov	r0, #805306368
 2213 005c FFF7FEFF 		bl	LL_RCC_GetCLKPClockFreq
 2214 0060 E5E7     		b	.L493
 2215              	.L504:
 2216 0062 00BF     		.align	2
 2217              	.L503:
 2218 0064 00440258 		.word	1476543488
 2219 0068 00000000 		.word	.LANCHOR0
 2221              		.section	.text.LL_RCC_GetQSPIClockFreq,"ax",%progbits
 2222              		.align	1
 2223              		.global	LL_RCC_GetQSPIClockFreq
 2224              		.syntax unified
 2225              		.thumb
 2226              		.thumb_func
 2227              		.fpu fpv5-d16
 2229              	LL_RCC_GetQSPIClockFreq:
 2230              		@ args = 0, pretend = 0, frame = 16
 2231              		@ frame_needed = 0, uses_anonymous_args = 0
 2232 0000 1FB5     		push	{r0, r1, r2, r3, r4, lr}
 2233 0002 194C     		ldr	r4, .L518
 2234 0004 E36C     		ldr	r3, [r4, #76]
 2235 0006 03F03003 		and	r3, r3, #48
 2236 000a 202B     		cmp	r3, #32
 2237 000c 23D0     		beq	.L506
 2238 000e 04D8     		bhi	.L507
 2239 0010 53B1     		cbz	r3, .L508
ARM GAS  C:\Users\KhanhTD8\AppData\Local\Temp\ccohIgti.s 			page 39


 2240 0012 102B     		cmp	r3, #16
 2241 0014 16D0     		beq	.L509
 2242              	.L513:
 2243 0016 0020     		movs	r0, #0
 2244 0018 12E0     		b	.L505
 2245              	.L507:
 2246 001a 302B     		cmp	r3, #48
 2247 001c FBD1     		bne	.L513
 2248 001e 4FF04050 		mov	r0, #805306368
 2249 0022 FFF7FEFF 		bl	LL_RCC_GetCLKPClockFreq
 2250 0026 0BE0     		b	.L505
 2251              	.L508:
 2252 0028 FFF7FEFF 		bl	RCC_GetSystemClockFreq
 2253 002c A369     		ldr	r3, [r4, #24]
 2254 002e 0F4A     		ldr	r2, .L518+4
 2255 0030 C3F30323 		ubfx	r3, r3, #8, #4
 2256 0034 D35C     		ldrb	r3, [r2, r3]	@ zero_extendqisi2
 2257 0036 03F01F03 		and	r3, r3, #31
 2258 003a D840     		lsrs	r0, r0, r3
 2259 003c FFF7FEFF 		bl	RCC_GetHCLKClockFreq
 2260              	.L505:
 2261 0040 04B0     		add	sp, sp, #16
 2262              		@ sp needed
 2263 0042 10BD     		pop	{r4, pc}
 2264              	.L509:
 2265 0044 FFF7FEFF 		bl	LL_RCC_PLL1_IsReady
 2266 0048 0028     		cmp	r0, #0
 2267 004a E4D0     		beq	.L513
 2268 004c 01A8     		add	r0, sp, #4
 2269 004e FFF7FEFF 		bl	LL_RCC_GetPLL1ClockFreq
 2270 0052 0298     		ldr	r0, [sp, #8]
 2271 0054 F4E7     		b	.L505
 2272              	.L506:
 2273 0056 FFF7FEFF 		bl	LL_RCC_PLL2_IsReady
 2274 005a 0028     		cmp	r0, #0
 2275 005c DBD0     		beq	.L513
 2276 005e 01A8     		add	r0, sp, #4
 2277 0060 FFF7FEFF 		bl	LL_RCC_GetPLL2ClockFreq
 2278 0064 0398     		ldr	r0, [sp, #12]
 2279 0066 EBE7     		b	.L505
 2280              	.L519:
 2281              		.align	2
 2282              	.L518:
 2283 0068 00440258 		.word	1476543488
 2284 006c 00000000 		.word	.LANCHOR0
 2286              		.global	LL_RCC_PrescTable
 2287              		.section	.rodata.LL_RCC_PrescTable,"a"
 2288              		.set	.LANCHOR0,. + 0
 2291              	LL_RCC_PrescTable:
 2292 0000 00000000 		.ascii	"\000\000\000\000\001\002\003\004\001\002\003\004\006"
 2292      01020304 
 2292      01020304 
 2292      06
 2293 000d 070809   		.ascii	"\007\010\011"
 2294              		.ident	"GCC: (GNU Arm Embedded Toolchain 9-2020-q2-update) 9.3.1 20200408 (release)"
ARM GAS  C:\Users\KhanhTD8\AppData\Local\Temp\ccohIgti.s 			page 40

